

Microchip MPLAB XC8 Assembler V3.10 build 20250813170317 
                                                                                               Sat Jan 31 16:02:33 2026

Microchip MPLAB XC8 C Compiler v3.10 (Free license) build 20250813170317 Og1 
     1                           	processor	16F877A
     2                           	pagewidth 120
     3                           	opt	flic
     4                           	psect	idataCOMMON,global,class=CODE,space=0,delta=2,noexec
     5                           	psect	idataBANK0,global,class=CODE,space=0,delta=2,noexec
     6                           	psect	strings,global,class=STRING,space=0,delta=2,noexec
     7                           	psect	cinit,global,class=CODE,space=0,merge=1,delta=2
     8                           	psect	bssCOMMON,global,class=COMMON,space=1,delta=1,noexec
     9                           	psect	dataCOMMON,global,class=COMMON,space=1,delta=1,noexec
    10                           	psect	bssBANK0,global,class=BANK0,space=1,delta=1,noexec
    11                           	psect	dataBANK0,global,class=BANK0,space=1,delta=1,noexec
    12                           	psect	cstackCOMMON,global,class=COMMON,space=1,delta=1,noexec
    13                           	psect	cstackBANK0,global,class=BANK0,space=1,delta=1,noexec
    14                           	psect	maintext,global,class=CODE,space=0,split=1,delta=2
    15                           	psect	text1,local,class=CODE,space=0,merge=1,delta=2
    16                           	psect	text2,local,class=CODE,space=0,merge=1,delta=2,group=1
    17                           	psect	text3,local,class=CODE,space=0,merge=1,delta=2
    18                           	psect	text4,local,class=CODE,space=0,merge=1,delta=2,group=1
    19                           	psect	text5,local,class=CODE,space=0,merge=1,delta=2,group=1
    20                           	psect	text6,local,class=CODE,space=0,merge=1,delta=2,group=1
    21                           	psect	text7,local,class=CODE,space=0,merge=1,delta=2
    22                           	psect	text8,local,class=CODE,space=0,merge=1,delta=2
    23                           	psect	text9,local,class=CODE,space=0,merge=1,delta=2
    24                           	psect	text10,local,class=CODE,space=0,merge=1,delta=2
    25                           	psect	text11,local,class=CODE,space=0,merge=1,delta=2
    26                           	psect	text12,local,class=CODE,space=0,merge=1,delta=2
    27                           	psect	text13,local,class=CODE,space=0,merge=1,delta=2
    28                           	psect	text14,local,class=CODE,space=0,merge=1,delta=2
    29                           	psect	text15,local,class=CODE,space=0,merge=1,delta=2
    30                           	psect	text16,local,class=CODE,space=0,merge=1,delta=2
    31                           	psect	text17,local,class=CODE,space=0,merge=1,delta=2,group=1
    32                           	psect	text18,local,class=CODE,space=0,merge=1,delta=2,group=1
    33                           	psect	text19,local,class=CODE,space=0,merge=1,delta=2
    34                           	psect	text20,local,class=CODE,space=0,merge=1,delta=2
    35                           	psect	text21,local,class=CODE,space=0,merge=1,delta=2
    36                           	psect	text22,local,class=CODE,space=0,merge=1,delta=2
    37                           	psect	text23,local,class=CODE,space=0,merge=1,delta=2
    38                           	psect	text24,local,class=CODE,space=0,merge=1,delta=2
    39                           	psect	intentry,global,class=CODE,space=0,delta=2
    40                           	psect	config,global,abs,ovrld,class=CONFIG,space=4,delta=2,noexec
    41                           	dabs	1,0x7E,2
    42     0000                     
    43                           ; Generated 12/10/2023 GMT
    44                           ; 
    45                           ; Copyright © 2023, Microchip Technology Inc. and its subsidiaries ("Microchip")
    46                           ; All rights reserved.
    47                           ; 
    48                           ; This software is developed by Microchip Technology Inc. and its subsidiaries ("Microch
      +                          ip").
    49                           ; 
    50                           ; Redistribution and use in source and binary forms, with or without modification, are
    51                           ; permitted provided that the following conditions are met:
    52                           ; 
    53                           ;     1. Redistributions of source code must retain the above copyright notice, this lis
      +                          t of
    54                           ;        conditions and the following disclaimer.
    55                           ; 
    56                           ;     2. Redistributions in binary form must reproduce the above copyright notice, this 
      +                          list
    57                           ;        of conditions and the following disclaimer in the documentation and/or other
    58                           ;        materials provided with the distribution. Publication is not required when
    59                           ;        this file is used in an embedded application.
    60                           ; 
    61                           ;     3. Microchip's name may not be used to endorse or promote products derived from th
      +                          is
    62                           ;        software without specific prior written permission.
    63                           ; 
    64                           ; THIS SOFTWARE IS PROVIDED BY MICROCHIP "AS IS" AND ANY EXPRESS OR IMPLIED WARRANTIES,
    65                           ; INCLUDING, BUT NOT LIMITED TO, THE IMPLIED WARRANTIES OF MERCHANTABILITY AND FITNESS F
      +                          OR
    66                           ; PURPOSE ARE DISCLAIMED.  IN NO EVENT SHALL MICROCHIP BE LIABLE FOR ANY DIRECT, INDIREC
      +                          T,
    67                           ; INCIDENTAL, SPECIAL, EXEMPLARY, OR CONSEQUENTIAL DAMAGES (INCLUDING BUT NOT LIMITED TO
    68                           ; PROCUREMENT OF SUBSTITUTE GOODS OR SERVICES; LOSS OF USE, DATA OR PROFITS; OR BUSINESS
    69                           ; INTERRUPTION) HOWSOEVER CAUSED AND ON ANY THEORY OF LIABILITY, WHETHER IN CONTRACT, ST
      +                          RICT
    70                           ; LIABILITY, OR TORT (INCLUDING NEGLIGENCE OR OTHERWISE) ARISING IN ANY WAY OUT OF THE U
      +                          SE OF
    71                           ; THIS SOFTWARE, EVEN IF ADVISED OF THE POSSIBILITY OF SUCH DAMAGE.
    72                           ; 
    73                           ; 
    74                           ; Code-generator required, PIC16F877A Definitions
    75                           ; 
    76                           ; SFR Addresses
    77     0004                     fsr             equ	4
    78     0004                     fsr0            equ	4
    79     0000                     indf            equ	0
    80     0000                     indf0           equ	0
    81     0002                     pc              equ	2
    82     0002                     pcl             equ	2
    83     000A                     pclath          equ	10
    84     0003                     status          equ	3
    85     0000                     INDF            equ	0	;# 
    86     0001                     TMR0            equ	1	;# 
    87     0002                     PCL             equ	2	;# 
    88     0003                     STATUS          equ	3	;# 
    89     0004                     FSR             equ	4	;# 
    90     0005                     PORTA           equ	5	;# 
    91     0006                     PORTB           equ	6	;# 
    92     0007                     PORTC           equ	7	;# 
    93     0008                     PORTD           equ	8	;# 
    94     0009                     PORTE           equ	9	;# 
    95     000A                     PCLATH          equ	10	;# 
    96     000B                     INTCON          equ	11	;# 
    97     000C                     PIR1            equ	12	;# 
    98     000D                     PIR2            equ	13	;# 
    99     000E                     TMR1            equ	14	;# 
   100     000E                     TMR1L           equ	14	;# 
   101     000F                     TMR1H           equ	15	;# 
   102     0010                     T1CON           equ	16	;# 
   103     0011                     TMR2            equ	17	;# 
   104     0012                     T2CON           equ	18	;# 
   105     0013                     SSPBUF          equ	19	;# 
   106     0014                     SSPCON          equ	20	;# 
   107     0015                     CCPR1           equ	21	;# 
   108     0015                     CCPR1L          equ	21	;# 
   109     0016                     CCPR1H          equ	22	;# 
   110     0017                     CCP1CON         equ	23	;# 
   111     0018                     RCSTA           equ	24	;# 
   112     0019                     TXREG           equ	25	;# 
   113     001A                     RCREG           equ	26	;# 
   114     001B                     CCPR2           equ	27	;# 
   115     001B                     CCPR2L          equ	27	;# 
   116     001C                     CCPR2H          equ	28	;# 
   117     001D                     CCP2CON         equ	29	;# 
   118     001E                     ADRESH          equ	30	;# 
   119     001F                     ADCON0          equ	31	;# 
   120     0081                     OPTION_REG      equ	129	;# 
   121     0085                     TRISA           equ	133	;# 
   122     0086                     TRISB           equ	134	;# 
   123     0087                     TRISC           equ	135	;# 
   124     0088                     TRISD           equ	136	;# 
   125     0089                     TRISE           equ	137	;# 
   126     008C                     PIE1            equ	140	;# 
   127     008D                     PIE2            equ	141	;# 
   128     008E                     PCON            equ	142	;# 
   129     0091                     SSPCON2         equ	145	;# 
   130     0092                     PR2             equ	146	;# 
   131     0093                     SSPADD          equ	147	;# 
   132     0094                     SSPSTAT         equ	148	;# 
   133     0098                     TXSTA           equ	152	;# 
   134     0099                     SPBRG           equ	153	;# 
   135     009C                     CMCON           equ	156	;# 
   136     009D                     CVRCON          equ	157	;# 
   137     009E                     ADRESL          equ	158	;# 
   138     009F                     ADCON1          equ	159	;# 
   139     010C                     EEDATA          equ	268	;# 
   140     010D                     EEADR           equ	269	;# 
   141     010E                     EEDATH          equ	270	;# 
   142     010F                     EEADRH          equ	271	;# 
   143     018C                     EECON1          equ	396	;# 
   144     018D                     EECON2          equ	397	;# 
   145     0000                     INDF            equ	0	;# 
   146     0001                     TMR0            equ	1	;# 
   147     0002                     PCL             equ	2	;# 
   148     0003                     STATUS          equ	3	;# 
   149     0004                     FSR             equ	4	;# 
   150     0005                     PORTA           equ	5	;# 
   151     0006                     PORTB           equ	6	;# 
   152     0007                     PORTC           equ	7	;# 
   153     0008                     PORTD           equ	8	;# 
   154     0009                     PORTE           equ	9	;# 
   155     000A                     PCLATH          equ	10	;# 
   156     000B                     INTCON          equ	11	;# 
   157     000C                     PIR1            equ	12	;# 
   158     000D                     PIR2            equ	13	;# 
   159     000E                     TMR1            equ	14	;# 
   160     000E                     TMR1L           equ	14	;# 
   161     000F                     TMR1H           equ	15	;# 
   162     0010                     T1CON           equ	16	;# 
   163     0011                     TMR2            equ	17	;# 
   164     0012                     T2CON           equ	18	;# 
   165     0013                     SSPBUF          equ	19	;# 
   166     0014                     SSPCON          equ	20	;# 
   167     0015                     CCPR1           equ	21	;# 
   168     0015                     CCPR1L          equ	21	;# 
   169     0016                     CCPR1H          equ	22	;# 
   170     0017                     CCP1CON         equ	23	;# 
   171     0018                     RCSTA           equ	24	;# 
   172     0019                     TXREG           equ	25	;# 
   173     001A                     RCREG           equ	26	;# 
   174     001B                     CCPR2           equ	27	;# 
   175     001B                     CCPR2L          equ	27	;# 
   176     001C                     CCPR2H          equ	28	;# 
   177     001D                     CCP2CON         equ	29	;# 
   178     001E                     ADRESH          equ	30	;# 
   179     001F                     ADCON0          equ	31	;# 
   180     0081                     OPTION_REG      equ	129	;# 
   181     0085                     TRISA           equ	133	;# 
   182     0086                     TRISB           equ	134	;# 
   183     0087                     TRISC           equ	135	;# 
   184     0088                     TRISD           equ	136	;# 
   185     0089                     TRISE           equ	137	;# 
   186     008C                     PIE1            equ	140	;# 
   187     008D                     PIE2            equ	141	;# 
   188     008E                     PCON            equ	142	;# 
   189     0091                     SSPCON2         equ	145	;# 
   190     0092                     PR2             equ	146	;# 
   191     0093                     SSPADD          equ	147	;# 
   192     0094                     SSPSTAT         equ	148	;# 
   193     0098                     TXSTA           equ	152	;# 
   194     0099                     SPBRG           equ	153	;# 
   195     009C                     CMCON           equ	156	;# 
   196     009D                     CVRCON          equ	157	;# 
   197     009E                     ADRESL          equ	158	;# 
   198     009F                     ADCON1          equ	159	;# 
   199     010C                     EEDATA          equ	268	;# 
   200     010D                     EEADR           equ	269	;# 
   201     010E                     EEDATH          equ	270	;# 
   202     010F                     EEADRH          equ	271	;# 
   203     018C                     EECON1          equ	396	;# 
   204     018D                     EECON2          equ	397	;# 
   205     0000                     INDF            equ	0	;# 
   206     0001                     TMR0            equ	1	;# 
   207     0002                     PCL             equ	2	;# 
   208     0003                     STATUS          equ	3	;# 
   209     0004                     FSR             equ	4	;# 
   210     0005                     PORTA           equ	5	;# 
   211     0006                     PORTB           equ	6	;# 
   212     0007                     PORTC           equ	7	;# 
   213     0008                     PORTD           equ	8	;# 
   214     0009                     PORTE           equ	9	;# 
   215     000A                     PCLATH          equ	10	;# 
   216     000B                     INTCON          equ	11	;# 
   217     000C                     PIR1            equ	12	;# 
   218     000D                     PIR2            equ	13	;# 
   219     000E                     TMR1            equ	14	;# 
   220     000E                     TMR1L           equ	14	;# 
   221     000F                     TMR1H           equ	15	;# 
   222     0010                     T1CON           equ	16	;# 
   223     0011                     TMR2            equ	17	;# 
   224     0012                     T2CON           equ	18	;# 
   225     0013                     SSPBUF          equ	19	;# 
   226     0014                     SSPCON          equ	20	;# 
   227     0015                     CCPR1           equ	21	;# 
   228     0015                     CCPR1L          equ	21	;# 
   229     0016                     CCPR1H          equ	22	;# 
   230     0017                     CCP1CON         equ	23	;# 
   231     0018                     RCSTA           equ	24	;# 
   232     0019                     TXREG           equ	25	;# 
   233     001A                     RCREG           equ	26	;# 
   234     001B                     CCPR2           equ	27	;# 
   235     001B                     CCPR2L          equ	27	;# 
   236     001C                     CCPR2H          equ	28	;# 
   237     001D                     CCP2CON         equ	29	;# 
   238     001E                     ADRESH          equ	30	;# 
   239     001F                     ADCON0          equ	31	;# 
   240     0081                     OPTION_REG      equ	129	;# 
   241     0085                     TRISA           equ	133	;# 
   242     0086                     TRISB           equ	134	;# 
   243     0087                     TRISC           equ	135	;# 
   244     0088                     TRISD           equ	136	;# 
   245     0089                     TRISE           equ	137	;# 
   246     008C                     PIE1            equ	140	;# 
   247     008D                     PIE2            equ	141	;# 
   248     008E                     PCON            equ	142	;# 
   249     0091                     SSPCON2         equ	145	;# 
   250     0092                     PR2             equ	146	;# 
   251     0093                     SSPADD          equ	147	;# 
   252     0094                     SSPSTAT         equ	148	;# 
   253     0098                     TXSTA           equ	152	;# 
   254     0099                     SPBRG           equ	153	;# 
   255     009C                     CMCON           equ	156	;# 
   256     009D                     CVRCON          equ	157	;# 
   257     009E                     ADRESL          equ	158	;# 
   258     009F                     ADCON1          equ	159	;# 
   259     010C                     EEDATA          equ	268	;# 
   260     010D                     EEADR           equ	269	;# 
   261     010E                     EEDATH          equ	270	;# 
   262     010F                     EEADRH          equ	271	;# 
   263     018C                     EECON1          equ	396	;# 
   264     018D                     EECON2          equ	397	;# 
   265     0000                     INDF            equ	0	;# 
   266     0001                     TMR0            equ	1	;# 
   267     0002                     PCL             equ	2	;# 
   268     0003                     STATUS          equ	3	;# 
   269     0004                     FSR             equ	4	;# 
   270     0005                     PORTA           equ	5	;# 
   271     0006                     PORTB           equ	6	;# 
   272     0007                     PORTC           equ	7	;# 
   273     0008                     PORTD           equ	8	;# 
   274     0009                     PORTE           equ	9	;# 
   275     000A                     PCLATH          equ	10	;# 
   276     000B                     INTCON          equ	11	;# 
   277     000C                     PIR1            equ	12	;# 
   278     000D                     PIR2            equ	13	;# 
   279     000E                     TMR1            equ	14	;# 
   280     000E                     TMR1L           equ	14	;# 
   281     000F                     TMR1H           equ	15	;# 
   282     0010                     T1CON           equ	16	;# 
   283     0011                     TMR2            equ	17	;# 
   284     0012                     T2CON           equ	18	;# 
   285     0013                     SSPBUF          equ	19	;# 
   286     0014                     SSPCON          equ	20	;# 
   287     0015                     CCPR1           equ	21	;# 
   288     0015                     CCPR1L          equ	21	;# 
   289     0016                     CCPR1H          equ	22	;# 
   290     0017                     CCP1CON         equ	23	;# 
   291     0018                     RCSTA           equ	24	;# 
   292     0019                     TXREG           equ	25	;# 
   293     001A                     RCREG           equ	26	;# 
   294     001B                     CCPR2           equ	27	;# 
   295     001B                     CCPR2L          equ	27	;# 
   296     001C                     CCPR2H          equ	28	;# 
   297     001D                     CCP2CON         equ	29	;# 
   298     001E                     ADRESH          equ	30	;# 
   299     001F                     ADCON0          equ	31	;# 
   300     0081                     OPTION_REG      equ	129	;# 
   301     0085                     TRISA           equ	133	;# 
   302     0086                     TRISB           equ	134	;# 
   303     0087                     TRISC           equ	135	;# 
   304     0088                     TRISD           equ	136	;# 
   305     0089                     TRISE           equ	137	;# 
   306     008C                     PIE1            equ	140	;# 
   307     008D                     PIE2            equ	141	;# 
   308     008E                     PCON            equ	142	;# 
   309     0091                     SSPCON2         equ	145	;# 
   310     0092                     PR2             equ	146	;# 
   311     0093                     SSPADD          equ	147	;# 
   312     0094                     SSPSTAT         equ	148	;# 
   313     0098                     TXSTA           equ	152	;# 
   314     0099                     SPBRG           equ	153	;# 
   315     009C                     CMCON           equ	156	;# 
   316     009D                     CVRCON          equ	157	;# 
   317     009E                     ADRESL          equ	158	;# 
   318     009F                     ADCON1          equ	159	;# 
   319     010C                     EEDATA          equ	268	;# 
   320     010D                     EEADR           equ	269	;# 
   321     010E                     EEDATH          equ	270	;# 
   322     010F                     EEADRH          equ	271	;# 
   323     018C                     EECON1          equ	396	;# 
   324     018D                     EECON2          equ	397	;# 
   325     0000                     INDF            equ	0	;# 
   326     0001                     TMR0            equ	1	;# 
   327     0002                     PCL             equ	2	;# 
   328     0003                     STATUS          equ	3	;# 
   329     0004                     FSR             equ	4	;# 
   330     0005                     PORTA           equ	5	;# 
   331     0006                     PORTB           equ	6	;# 
   332     0007                     PORTC           equ	7	;# 
   333     0008                     PORTD           equ	8	;# 
   334     0009                     PORTE           equ	9	;# 
   335     000A                     PCLATH          equ	10	;# 
   336     000B                     INTCON          equ	11	;# 
   337     000C                     PIR1            equ	12	;# 
   338     000D                     PIR2            equ	13	;# 
   339     000E                     TMR1            equ	14	;# 
   340     000E                     TMR1L           equ	14	;# 
   341     000F                     TMR1H           equ	15	;# 
   342     0010                     T1CON           equ	16	;# 
   343     0011                     TMR2            equ	17	;# 
   344     0012                     T2CON           equ	18	;# 
   345     0013                     SSPBUF          equ	19	;# 
   346     0014                     SSPCON          equ	20	;# 
   347     0015                     CCPR1           equ	21	;# 
   348     0015                     CCPR1L          equ	21	;# 
   349     0016                     CCPR1H          equ	22	;# 
   350     0017                     CCP1CON         equ	23	;# 
   351     0018                     RCSTA           equ	24	;# 
   352     0019                     TXREG           equ	25	;# 
   353     001A                     RCREG           equ	26	;# 
   354     001B                     CCPR2           equ	27	;# 
   355     001B                     CCPR2L          equ	27	;# 
   356     001C                     CCPR2H          equ	28	;# 
   357     001D                     CCP2CON         equ	29	;# 
   358     001E                     ADRESH          equ	30	;# 
   359     001F                     ADCON0          equ	31	;# 
   360     0081                     OPTION_REG      equ	129	;# 
   361     0085                     TRISA           equ	133	;# 
   362     0086                     TRISB           equ	134	;# 
   363     0087                     TRISC           equ	135	;# 
   364     0088                     TRISD           equ	136	;# 
   365     0089                     TRISE           equ	137	;# 
   366     008C                     PIE1            equ	140	;# 
   367     008D                     PIE2            equ	141	;# 
   368     008E                     PCON            equ	142	;# 
   369     0091                     SSPCON2         equ	145	;# 
   370     0092                     PR2             equ	146	;# 
   371     0093                     SSPADD          equ	147	;# 
   372     0094                     SSPSTAT         equ	148	;# 
   373     0098                     TXSTA           equ	152	;# 
   374     0099                     SPBRG           equ	153	;# 
   375     009C                     CMCON           equ	156	;# 
   376     009D                     CVRCON          equ	157	;# 
   377     009E                     ADRESL          equ	158	;# 
   378     009F                     ADCON1          equ	159	;# 
   379     010C                     EEDATA          equ	268	;# 
   380     010D                     EEADR           equ	269	;# 
   381     010E                     EEDATH          equ	270	;# 
   382     010F                     EEADRH          equ	271	;# 
   383     018C                     EECON1          equ	396	;# 
   384     018D                     EECON2          equ	397	;# 
   385     0000                     INDF            equ	0	;# 
   386     0001                     TMR0            equ	1	;# 
   387     0002                     PCL             equ	2	;# 
   388     0003                     STATUS          equ	3	;# 
   389     0004                     FSR             equ	4	;# 
   390     0005                     PORTA           equ	5	;# 
   391     0006                     PORTB           equ	6	;# 
   392     0007                     PORTC           equ	7	;# 
   393     0008                     PORTD           equ	8	;# 
   394     0009                     PORTE           equ	9	;# 
   395     000A                     PCLATH          equ	10	;# 
   396     000B                     INTCON          equ	11	;# 
   397     000C                     PIR1            equ	12	;# 
   398     000D                     PIR2            equ	13	;# 
   399     000E                     TMR1            equ	14	;# 
   400     000E                     TMR1L           equ	14	;# 
   401     000F                     TMR1H           equ	15	;# 
   402     0010                     T1CON           equ	16	;# 
   403     0011                     TMR2            equ	17	;# 
   404     0012                     T2CON           equ	18	;# 
   405     0013                     SSPBUF          equ	19	;# 
   406     0014                     SSPCON          equ	20	;# 
   407     0015                     CCPR1           equ	21	;# 
   408     0015                     CCPR1L          equ	21	;# 
   409     0016                     CCPR1H          equ	22	;# 
   410     0017                     CCP1CON         equ	23	;# 
   411     0018                     RCSTA           equ	24	;# 
   412     0019                     TXREG           equ	25	;# 
   413     001A                     RCREG           equ	26	;# 
   414     001B                     CCPR2           equ	27	;# 
   415     001B                     CCPR2L          equ	27	;# 
   416     001C                     CCPR2H          equ	28	;# 
   417     001D                     CCP2CON         equ	29	;# 
   418     001E                     ADRESH          equ	30	;# 
   419     001F                     ADCON0          equ	31	;# 
   420     0081                     OPTION_REG      equ	129	;# 
   421     0085                     TRISA           equ	133	;# 
   422     0086                     TRISB           equ	134	;# 
   423     0087                     TRISC           equ	135	;# 
   424     0088                     TRISD           equ	136	;# 
   425     0089                     TRISE           equ	137	;# 
   426     008C                     PIE1            equ	140	;# 
   427     008D                     PIE2            equ	141	;# 
   428     008E                     PCON            equ	142	;# 
   429     0091                     SSPCON2         equ	145	;# 
   430     0092                     PR2             equ	146	;# 
   431     0093                     SSPADD          equ	147	;# 
   432     0094                     SSPSTAT         equ	148	;# 
   433     0098                     TXSTA           equ	152	;# 
   434     0099                     SPBRG           equ	153	;# 
   435     009C                     CMCON           equ	156	;# 
   436     009D                     CVRCON          equ	157	;# 
   437     009E                     ADRESL          equ	158	;# 
   438     009F                     ADCON1          equ	159	;# 
   439     010C                     EEDATA          equ	268	;# 
   440     010D                     EEADR           equ	269	;# 
   441     010E                     EEDATH          equ	270	;# 
   442     010F                     EEADRH          equ	271	;# 
   443     018C                     EECON1          equ	396	;# 
   444     018D                     EECON2          equ	397	;# 
   445     0000                     INDF            equ	0	;# 
   446     0001                     TMR0            equ	1	;# 
   447     0002                     PCL             equ	2	;# 
   448     0003                     STATUS          equ	3	;# 
   449     0004                     FSR             equ	4	;# 
   450     0005                     PORTA           equ	5	;# 
   451     0006                     PORTB           equ	6	;# 
   452     0007                     PORTC           equ	7	;# 
   453     0008                     PORTD           equ	8	;# 
   454     0009                     PORTE           equ	9	;# 
   455     000A                     PCLATH          equ	10	;# 
   456     000B                     INTCON          equ	11	;# 
   457     000C                     PIR1            equ	12	;# 
   458     000D                     PIR2            equ	13	;# 
   459     000E                     TMR1            equ	14	;# 
   460     000E                     TMR1L           equ	14	;# 
   461     000F                     TMR1H           equ	15	;# 
   462     0010                     T1CON           equ	16	;# 
   463     0011                     TMR2            equ	17	;# 
   464     0012                     T2CON           equ	18	;# 
   465     0013                     SSPBUF          equ	19	;# 
   466     0014                     SSPCON          equ	20	;# 
   467     0015                     CCPR1           equ	21	;# 
   468     0015                     CCPR1L          equ	21	;# 
   469     0016                     CCPR1H          equ	22	;# 
   470     0017                     CCP1CON         equ	23	;# 
   471     0018                     RCSTA           equ	24	;# 
   472     0019                     TXREG           equ	25	;# 
   473     001A                     RCREG           equ	26	;# 
   474     001B                     CCPR2           equ	27	;# 
   475     001B                     CCPR2L          equ	27	;# 
   476     001C                     CCPR2H          equ	28	;# 
   477     001D                     CCP2CON         equ	29	;# 
   478     001E                     ADRESH          equ	30	;# 
   479     001F                     ADCON0          equ	31	;# 
   480     0081                     OPTION_REG      equ	129	;# 
   481     0085                     TRISA           equ	133	;# 
   482     0086                     TRISB           equ	134	;# 
   483     0087                     TRISC           equ	135	;# 
   484     0088                     TRISD           equ	136	;# 
   485     0089                     TRISE           equ	137	;# 
   486     008C                     PIE1            equ	140	;# 
   487     008D                     PIE2            equ	141	;# 
   488     008E                     PCON            equ	142	;# 
   489     0091                     SSPCON2         equ	145	;# 
   490     0092                     PR2             equ	146	;# 
   491     0093                     SSPADD          equ	147	;# 
   492     0094                     SSPSTAT         equ	148	;# 
   493     0098                     TXSTA           equ	152	;# 
   494     0099                     SPBRG           equ	153	;# 
   495     009C                     CMCON           equ	156	;# 
   496     009D                     CVRCON          equ	157	;# 
   497     009E                     ADRESL          equ	158	;# 
   498     009F                     ADCON1          equ	159	;# 
   499     010C                     EEDATA          equ	268	;# 
   500     010D                     EEADR           equ	269	;# 
   501     010E                     EEDATH          equ	270	;# 
   502     010F                     EEADRH          equ	271	;# 
   503     018C                     EECON1          equ	396	;# 
   504     018D                     EECON2          equ	397	;# 
   505                           
   506                           	psect	idataCOMMON
   507     04FE                     __pidataCOMMON:
   508                           
   509                           ;initializer for read_matrix_keypad@once
   510     04FE  3401               	retlw	1
   511                           
   512                           	psect	idataBANK0
   513     04FF                     __pidataBANK0:
   514                           
   515                           ;initializer for _screen_flag
   516     04FF  3410               	retlw	16
   517     0008                     _PORTD          set	8
   518     0061                     _TMR2IF         set	97
   519     0091                     _T2CKPS1        set	145
   520     0090                     _T2CKPS0        set	144
   521     0049                     _RE1            set	73
   522     004A                     _RE2            set	74
   523     0032                     _RB2            set	50
   524     0031                     _RB1            set	49
   525     0030                     _RB0            set	48
   526     0040                     _RD0            set	64
   527     0041                     _RD1            set	65
   528     0042                     _RD2            set	66
   529     0043                     _RD3            set	67
   530     003A                     _RC2            set	58
   531     0092                     _TMR2ON         set	146
   532     005F                     _GIE            set	95
   533     005E                     _PEIE           set	94
   534     0092                     _PR2            set	146
   535     0088                     _TRISD          set	136
   536     0086                     _TRISB          set	134
   537     0461                     _TMR2IE         set	1121
   538     0449                     _TRISE1         set	1097
   539     044A                     _TRISE2         set	1098
   540     040F                     _nRBPU          set	1039
   541     043A                     _TRISC2         set	1082
   542                           
   543                           	psect	strings
   544     0500                     __pstrings:
   545     0500                     stringtab:
   546     0500                     __stringtab:
   547     0500                     stringcode:	
   548                           ;	String table - string pointers are 1 byte each
   549                           
   550     0500                     stringdir:
   551     0500  3005               	movlw	high stringdir
   552     0501  008A               	movwf	10
   553     0502  0804               	movf	4,w
   554     0503  0A84               	incf	4,f
   555     0504  0782               	addwf	2,f
   556     0505                     __stringbase:
   557     0505  3400               	retlw	0
   558     0506                     __end_of__stringtab:
   559     0506                     STR_8:
   560     0506  3453               	retlw	83	;'S'
   561     0507  3445               	retlw	69	;'E'
   562     0508  3454               	retlw	84	;'T'
   563     0509  3420               	retlw	32	;' '
   564     050A  3454               	retlw	84	;'T'
   565     050B  3449               	retlw	73	;'I'
   566     050C  344D               	retlw	77	;'M'
   567     050D  3445               	retlw	69	;'E'
   568     050E  3420               	retlw	32	;' '
   569     050F  3428               	retlw	40	;'('
   570     0510  344D               	retlw	77	;'M'
   571     0511  344D               	retlw	77	;'M'
   572     0512  343A               	retlw	58	;':'
   573     0513  3453               	retlw	83	;'S'
   574     0514  3453               	retlw	83	;'S'
   575     0515  3429               	retlw	41	;')'
   576     0516  3400               	retlw	0
   577     0517                     STR_10:
   578     0517  342A               	retlw	42	;'*'
   579     0518  343A               	retlw	58	;':'
   580     0519  3443               	retlw	67	;'C'
   581     051A  344C               	retlw	76	;'L'
   582     051B  3445               	retlw	69	;'E'
   583     051C  3441               	retlw	65	;'A'
   584     051D  3452               	retlw	82	;'R'
   585     051E  3420               	retlw	32	;' '
   586     051F  3423               	retlw	35	;'#'
   587     0520  343A               	retlw	58	;':'
   588     0521  3445               	retlw	69	;'E'
   589     0522  344E               	retlw	78	;'N'
   590     0523  3454               	retlw	84	;'T'
   591     0524  3445               	retlw	69	;'E'
   592     0525  3452               	retlw	82	;'R'
   593     0526  3400               	retlw	0
   594     0527                     STR_21:
   595     0527  3445               	retlw	69	;'E'
   596     0528  346E               	retlw	110	;'n'
   597     0529  346A               	retlw	106	;'j'
   598     052A  346F               	retlw	111	;'o'
   599     052B  3479               	retlw	121	;'y'
   600     052C  3420               	retlw	32	;' '
   601     052D  3479               	retlw	121	;'y'
   602     052E  346F               	retlw	111	;'o'
   603     052F  3475               	retlw	117	;'u'
   604     0530  3472               	retlw	114	;'r'
   605     0531  3420               	retlw	32	;' '
   606     0532  346D               	retlw	109	;'m'
   607     0533  3465               	retlw	101	;'e'
   608     0534  3461               	retlw	97	;'a'
   609     0535  346C               	retlw	108	;'l'
   610     0536  3400               	retlw	0
   611     0537                     STR_17:
   612     0537  3434               	retlw	52	;'4'
   613     0538  342E               	retlw	46	;'.'
   614     0539  3453               	retlw	83	;'S'
   615     053A  3454               	retlw	84	;'T'
   616     053B  3441               	retlw	65	;'A'
   617     053C  3452               	retlw	82	;'R'
   618     053D  3454               	retlw	84	;'T'
   619     053E  342F               	retlw	47	;'/'
   620     053F  3452               	retlw	82	;'R'
   621     0540  3445               	retlw	69	;'E'
   622     0541  3453               	retlw	83	;'S'
   623     0542  3455               	retlw	85	;'U'
   624     0543  344D               	retlw	77	;'M'
   625     0544  3445               	retlw	69	;'E'
   626     0545  3400               	retlw	0
   627     0546                     STR_3:
   628     0546  344D               	retlw	77	;'M'
   629     0547  3469               	retlw	105	;'i'
   630     0548  3463               	retlw	99	;'c'
   631     0549  3472               	retlw	114	;'r'
   632     054A  346F               	retlw	111	;'o'
   633     054B  3477               	retlw	119	;'w'
   634     054C  3461               	retlw	97	;'a'
   635     054D  3476               	retlw	118	;'v'
   636     054E  3465               	retlw	101	;'e'
   637     054F  3420               	retlw	32	;' '
   638     0550  344F               	retlw	79	;'O'
   639     0551  3476               	retlw	118	;'v'
   640     0552  3465               	retlw	101	;'e'
   641     0553  346E               	retlw	110	;'n'
   642     0554  3400               	retlw	0
   643     0555                     STR_11:
   644     0555  3453               	retlw	83	;'S'
   645     0556  3445               	retlw	69	;'E'
   646     0557  3454               	retlw	84	;'T'
   647     0558  3420               	retlw	32	;' '
   648     0559  3454               	retlw	84	;'T'
   649     055A  3465               	retlw	101	;'e'
   650     055B  346D               	retlw	109	;'m'
   651     055C  3470               	retlw	112	;'p'
   652     055D  3420               	retlw	32	;' '
   653     055E  343C               	retlw	60	;'<'
   654     055F  342A               	retlw	42	;'*'
   655     0560  3443               	retlw	67	;'C'
   656     0561  343E               	retlw	62	;'>'
   657     0562  3400               	retlw	0
   658     0563                     STR_6:
   659     0563  3433               	retlw	51	;'3'
   660     0564  342E               	retlw	46	;'.'
   661     0565  3420               	retlw	32	;' '
   662     0566  3443               	retlw	67	;'C'
   663     0567  346F               	retlw	111	;'o'
   664     0568  346E               	retlw	110	;'n'
   665     0569  3476               	retlw	118	;'v'
   666     056A  3465               	retlw	101	;'e'
   667     056B  3463               	retlw	99	;'c'
   668     056C  3474               	retlw	116	;'t'
   669     056D  3469               	retlw	105	;'i'
   670     056E  346F               	retlw	111	;'o'
   671     056F  346E               	retlw	110	;'n'
   672     0570  3400               	retlw	0
   673     0571                     STR_1:
   674     0571  3450               	retlw	80	;'P'
   675     0572  346F               	retlw	111	;'o'
   676     0573  3477               	retlw	119	;'w'
   677     0574  3465               	retlw	101	;'e'
   678     0575  3472               	retlw	114	;'r'
   679     0576  3420               	retlw	32	;' '
   680     0577  343D               	retlw	61	;'='
   681     0578  3420               	retlw	32	;' '
   682     0579  3439               	retlw	57	;'9'
   683     057A  3430               	retlw	48	;'0'
   684     057B  3430               	retlw	48	;'0'
   685     057C  3457               	retlw	87	;'W'
   686     057D  3400               	retlw	0
   687     057E                     STR_2:
   688     057E  3450               	retlw	80	;'P'
   689     057F  346F               	retlw	111	;'o'
   690     0580  3477               	retlw	119	;'w'
   691     0581  3465               	retlw	101	;'e'
   692     0582  3472               	retlw	114	;'r'
   693     0583  3469               	retlw	105	;'i'
   694     0584  346E               	retlw	110	;'n'
   695     0585  3467               	retlw	103	;'g'
   696     0586  3420               	retlw	32	;' '
   697     0587  344F               	retlw	79	;'O'
   698     0588  344E               	retlw	78	;'N'
   699     0589  3400               	retlw	0
   700     058A                     STR_14:
   701     058A  3450               	retlw	80	;'P'
   702     058B  3472               	retlw	114	;'r'
   703     058C  3465               	retlw	101	;'e'
   704     058D  342D               	retlw	45	;'-'
   705     058E  3448               	retlw	72	;'H'
   706     058F  3465               	retlw	101	;'e'
   707     0590  3461               	retlw	97	;'a'
   708     0591  3474               	retlw	116	;'t'
   709     0592  3469               	retlw	105	;'i'
   710     0593  346E               	retlw	110	;'n'
   711     0594  3467               	retlw	103	;'g'
   712     0595  3400               	retlw	0
   713     0596                     STR_20:
   714     0596  3454               	retlw	84	;'T'
   715     0597  3449               	retlw	73	;'I'
   716     0598  344D               	retlw	77	;'M'
   717     0599  3445               	retlw	69	;'E'
   718     059A  3420               	retlw	32	;' '
   719     059B  3455               	retlw	85	;'U'
   720     059C  3450               	retlw	80	;'P'
   721     059D  3421               	retlw	33	;'!'
   722     059E  3421               	retlw	33	;'!'
   723     059F  3421               	retlw	33	;'!'
   724     05A0  3400               	retlw	0
   725     05A1                     STR_15:
   726     05A1  3454               	retlw	84	;'T'
   727     05A2  3469               	retlw	105	;'i'
   728     05A3  346D               	retlw	109	;'m'
   729     05A4  3465               	retlw	101	;'e'
   730     05A5  3420               	retlw	32	;' '
   731     05A6  3452               	retlw	82	;'R'
   732     05A7  3465               	retlw	101	;'e'
   733     05A8  346D               	retlw	109	;'m'
   734     05A9  343A               	retlw	58	;':'
   735     05AA  3400               	retlw	0
   736     05AB                     STR_5:
   737     05AB  3432               	retlw	50	;'2'
   738     05AC  342E               	retlw	46	;'.'
   739     05AD  3420               	retlw	32	;' '
   740     05AE  3447               	retlw	71	;'G'
   741     05AF  3472               	retlw	114	;'r'
   742     05B0  3469               	retlw	105	;'i'
   743     05B1  346C               	retlw	108	;'l'
   744     05B2  346C               	retlw	108	;'l'
   745     05B3  3400               	retlw	0
   746     05B4                     STR_4:
   747     05B4  3431               	retlw	49	;'1'
   748     05B5  342E               	retlw	46	;'.'
   749     05B6  3420               	retlw	32	;' '
   750     05B7  344D               	retlw	77	;'M'
   751     05B8  3469               	retlw	105	;'i'
   752     05B9  3463               	retlw	99	;'c'
   753     05BA  3472               	retlw	114	;'r'
   754     05BB  346F               	retlw	111	;'o'
   755     05BC  3400               	retlw	0
   756     05BD                     STR_7:
   757     05BD  3434               	retlw	52	;'4'
   758     05BE  342E               	retlw	46	;'.'
   759     05BF  3420               	retlw	32	;' '
   760     05C0  3453               	retlw	83	;'S'
   761     05C1  3474               	retlw	116	;'t'
   762     05C2  3461               	retlw	97	;'a'
   763     05C3  3472               	retlw	114	;'r'
   764     05C4  3474               	retlw	116	;'t'
   765     05C5  3400               	retlw	0
   766     05C6                     STR_16:
   767     05C6  3454               	retlw	84	;'T'
   768     05C7  3449               	retlw	73	;'I'
   769     05C8  344D               	retlw	77	;'M'
   770     05C9  3445               	retlw	69	;'E'
   771     05CA  3420               	retlw	32	;' '
   772     05CB  343D               	retlw	61	;'='
   773     05CC  3420               	retlw	32	;' '
   774     05CD  3400               	retlw	0
   775     05CE                     STR_18:
   776     05CE  3435               	retlw	53	;'5'
   777     05CF  342E               	retlw	46	;'.'
   778     05D0  3450               	retlw	80	;'P'
   779     05D1  3441               	retlw	65	;'A'
   780     05D2  3455               	retlw	85	;'U'
   781     05D3  3453               	retlw	83	;'S'
   782     05D4  3445               	retlw	69	;'E'
   783     05D5  3400               	retlw	0
   784     05D6                     STR_19:
   785     05D6  3436               	retlw	54	;'6'
   786     05D7  342E               	retlw	46	;'.'
   787     05D8  3453               	retlw	83	;'S'
   788     05D9  3454               	retlw	84	;'T'
   789     05DA  344F               	retlw	79	;'O'
   790     05DB  3450               	retlw	80	;'P'
   791     05DC  3400               	retlw	0
   792     05DD                     STR_9:
   793     05DD  3454               	retlw	84	;'T'
   794     05DE  3449               	retlw	73	;'I'
   795     05DF  344D               	retlw	77	;'M'
   796     05E0  3445               	retlw	69	;'E'
   797     05E1  343A               	retlw	58	;':'
   798     05E2  3400               	retlw	0
   799     05E3                     STR_12:
   800     05E3  3454               	retlw	84	;'T'
   801     05E4  3445               	retlw	69	;'E'
   802     05E5  344D               	retlw	77	;'M'
   803     05E6  3450               	retlw	80	;'P'
   804     05E7  343D               	retlw	61	;'='
   805     05E8  3400               	retlw	0
   806     0517                     STR_13          equ	STR_10
   807                           
   808                           	psect	cinit
   809     000F                     start_initialization:	
   810                           ; #config settings
   811                           
   812     000F                     __initialization:
   813                           
   814                           ; Initialize objects allocated to BANK0
   815     000F  120A  118A  24FF  120A  118A  	fcall	__pidataBANK0	;fetch initializer
   816     0014  00C0               	movwf	__pdataBANK0& (0+127)
   817                           
   818                           ; Initialize objects allocated to COMMON
   819     0015  120A  118A  24FE  120A  118A  	fcall	__pidataCOMMON	;fetch initializer
   820     001A  00FB               	movwf	__pdataCOMMON& (0+127)
   821                           
   822                           ; Clear objects allocated to BANK0
   823     001B  01B4               	clrf	__pbssBANK0& (0+127)
   824     001C  01B5               	clrf	(__pbssBANK0+1)& (0+127)
   825     001D  01B6               	clrf	(__pbssBANK0+2)& (0+127)
   826     001E  01B7               	clrf	(__pbssBANK0+3)& (0+127)
   827     001F  01B8               	clrf	(__pbssBANK0+4)& (0+127)
   828     0020  01B9               	clrf	(__pbssBANK0+5)& (0+127)
   829     0021  01BA               	clrf	(__pbssBANK0+6)& (0+127)
   830     0022  01BB               	clrf	(__pbssBANK0+7)& (0+127)
   831     0023  01BC               	clrf	(__pbssBANK0+8)& (0+127)
   832     0024  01BD               	clrf	(__pbssBANK0+9)& (0+127)
   833     0025  01BE               	clrf	(__pbssBANK0+10)& (0+127)
   834     0026  01BF               	clrf	(__pbssBANK0+11)& (0+127)
   835                           
   836                           ; Clear objects allocated to COMMON
   837     0027  01F9               	clrf	__pbssCOMMON& (0+127)
   838     0028  01FA               	clrf	(__pbssCOMMON+1)& (0+127)
   839     0029                     end_of_initialization:	
   840                           ;End of C runtime variable initialization code
   841                           
   842     0029                     __end_of__initialization:
   843     0029  0183               	clrf	3
   844     002A  120A  118A  2B15   	ljmp	_main	;jump to C main() function
   845                           
   846                           	psect	bssCOMMON
   847     0079                     __pbssCOMMON:
   848     0079                     isr@count:
   849     0079                     	ds	2
   850                           
   851                           	psect	dataCOMMON
   852     007B                     __pdataCOMMON:
   853     007B                     read_matrix_keypad@once:
   854     007B                     	ds	1
   855                           
   856                           	psect	bssBANK0
   857     0034                     __pbssBANK0:
   858     0034                     _temp:
   859     0034                     	ds	2
   860     0036                     set_temp@display_blank:
   861     0036                     	ds	1
   862     0037                     set_temp@delay:
   863     0037                     	ds	1
   864     0038                     set_temp@key_count:
   865     0038                     	ds	1
   866     0039                     set_time@display_blank:
   867     0039                     	ds	1
   868     003A                     set_time@delay:
   869     003A                     	ds	1
   870     003B                     set_time@key_count:
   871     003B                     	ds	1
   872     003C                     set_time@blink_pos:
   873     003C                     	ds	1
   874     003D                     _pre_heat:
   875     003D                     	ds	1
   876     003E                     _min:
   877     003E                     	ds	1
   878     003F                     _sec:
   879     003F                     	ds	1
   880                           
   881                           	psect	dataBANK0
   882     0040                     __pdataBANK0:
   883     0040                     _screen_flag:
   884     0040                     	ds	1
   885                           
   886                           	psect	cstackCOMMON
   887     0070                     __pcstackCOMMON:
   888     0070                     ?_init_clcd:
   889     0070                     ?_init_matrix_keypad:	
   890                           ; 1 bytes @ 0x0
   891                           
   892     0070                     ?_init_timer2:	
   893                           ; 1 bytes @ 0x0
   894                           
   895     0070                     ?_read_matrix_keypad:	
   896                           ; 1 bytes @ 0x0
   897                           
   898     0070                     ?_clear_screen:	
   899                           ; 1 bytes @ 0x0
   900                           
   901     0070                     ?_display_power_screen:	
   902                           ; 1 bytes @ 0x0
   903                           
   904     0070                     ?_display_modes:	
   905                           ; 1 bytes @ 0x0
   906                           
   907     0070                     ?_display_time:	
   908                           ; 1 bytes @ 0x0
   909                           
   910     0070                     ?_heat_food:	
   911                           ; 1 bytes @ 0x0
   912                           
   913     0070                     ?_init_config:	
   914                           ; 1 bytes @ 0x0
   915                           
   916     0070                     ?_main:	
   917                           ; 1 bytes @ 0x0
   918                           
   919     0070                     ?_scan_keypad:	
   920                           ; 1 bytes @ 0x0
   921                           
   922     0070                     ?_init_display_controller:	
   923                           ; 1 bytes @ 0x0
   924                           
   925     0070                     ?_isr:	
   926                           ; 1 bytes @ 0x0
   927                           
   928     0070                     ??_isr:	
   929                           ; 1 bytes @ 0x0
   930                           
   931                           
   932                           ; 1 bytes @ 0x0
   933     0070                     	ds	2
   934     0072                     ?_clcd_write:
   935     0072                     ?___bmul:	
   936                           ; 1 bytes @ 0x2
   937                           
   938     0072                     ?___wmul:	
   939                           ; 1 bytes @ 0x2
   940                           
   941     0072                     ?___awdiv:	
   942                           ; 2 bytes @ 0x2
   943                           
   944     0072                     ?___lwdiv:	
   945                           ; 2 bytes @ 0x2
   946                           
   947     0072                     clcd_write@mode:	
   948                           ; 2 bytes @ 0x2
   949                           
   950     0072                     ___bmul@multiplicand:	
   951                           ; 1 bytes @ 0x2
   952                           
   953     0072                     scan_keypad@i:	
   954                           ; 1 bytes @ 0x2
   955                           
   956     0072                     ___wmul@multiplier:	
   957                           ; 2 bytes @ 0x2
   958                           
   959     0072                     ___awdiv@divisor:	
   960                           ; 2 bytes @ 0x2
   961                           
   962     0072                     ___lwdiv@divisor:	
   963                           ; 2 bytes @ 0x2
   964                           
   965     0072                     ??_init_matrix_keypad:	
   966                           ; 2 bytes @ 0x2
   967                           
   968     0072                     ??_init_timer2:	
   969                           ; 1 bytes @ 0x2
   970                           
   971     0072                     ??_heat_food:	
   972                           ; 1 bytes @ 0x2
   973                           
   974     0072                     ??_scan_keypad:	
   975                           ; 1 bytes @ 0x2
   976                           
   977                           
   978                           ; 1 bytes @ 0x2
   979     0072                     	ds	1
   980     0073                     ___bmul@product:
   981     0073                     ??_clcd_write:	
   982                           ; 1 bytes @ 0x3
   983                           
   984     0073                     ??___bmul:	
   985                           ; 1 bytes @ 0x3
   986                           
   987                           
   988                           ; 1 bytes @ 0x3
   989     0073                     	ds	1
   990     0074                     read_matrix_keypad@mode:
   991     0074                     ___bmul@multiplier:	
   992                           ; 1 bytes @ 0x4
   993                           
   994     0074                     ___wmul@multiplicand:	
   995                           ; 1 bytes @ 0x4
   996                           
   997     0074                     ___awdiv@dividend:	
   998                           ; 2 bytes @ 0x4
   999                           
  1000     0074                     ___lwdiv@dividend:	
  1001                           ; 2 bytes @ 0x4
  1002                           
  1003     0074                     ??_read_matrix_keypad:	
  1004                           ; 2 bytes @ 0x4
  1005                           
  1006                           
  1007                           ; 1 bytes @ 0x4
  1008     0074                     	ds	1
  1009     0075                     read_matrix_keypad@key:
  1010     0075                     clcd_write@byte:	
  1011                           ; 1 bytes @ 0x5
  1012                           
  1013                           
  1014                           ; 1 bytes @ 0x5
  1015     0075                     	ds	1
  1016     0076                     ?_clcd_print:
  1017     0076                     clcd_print@str:	
  1018                           ; 1 bytes @ 0x6
  1019                           
  1020     0076                     ___awmod@counter:	
  1021                           ; 1 bytes @ 0x6
  1022                           
  1023     0076                     ___wmul@product:	
  1024                           ; 1 bytes @ 0x6
  1025                           
  1026     0076                     ___lwdiv@quotient:	
  1027                           ; 2 bytes @ 0x6
  1028                           
  1029     0076                     ??_clear_screen:	
  1030                           ; 2 bytes @ 0x6
  1031                           
  1032     0076                     ??_init_display_controller:	
  1033                           ; 1 bytes @ 0x6
  1034                           
  1035     0076                     ??___wmul:	
  1036                           ; 1 bytes @ 0x6
  1037                           
  1038     0076                     ??___awdiv:	
  1039                           ; 1 bytes @ 0x6
  1040                           
  1041     0076                     ??___awmod:	
  1042                           ; 1 bytes @ 0x6
  1043                           
  1044     0076                     ??___lwdiv:	
  1045                           ; 1 bytes @ 0x6
  1046                           
  1047                           
  1048                           ; 1 bytes @ 0x6
  1049     0076                     	ds	1
  1050     0077                     clcd_print@addr:
  1051     0077                     ___awmod@sign:	
  1052                           ; 1 bytes @ 0x7
  1053                           
  1054                           
  1055                           ; 1 bytes @ 0x7
  1056     0077                     	ds	1
  1057     0078                     ___lwdiv@counter:
  1058     0078                     ??_init_clcd:	
  1059                           ; 1 bytes @ 0x8
  1060                           
  1061     0078                     ??_clcd_print:	
  1062                           ; 1 bytes @ 0x8
  1063                           
  1064     0078                     ??_display_modes:	
  1065                           ; 1 bytes @ 0x8
  1066                           
  1067     0078                     ??_init_config:	
  1068                           ; 1 bytes @ 0x8
  1069                           
  1070                           
  1071                           ; 1 bytes @ 0x8
  1072     0078                     	ds	1
  1073     0079                     ??_clcd_putch:
  1074     0079                     ??___lwmod:	
  1075                           ; 1 bytes @ 0x9
  1076                           
  1077                           
  1078                           	psect	cstackBANK0
  1079     0020                     __pcstackBANK0:	
  1080                           ; 1 bytes @ 0x9
  1081                           
  1082     0020                     ?___lwmod:
  1083     0020                     ___awdiv@counter:	
  1084                           ; 2 bytes @ 0x0
  1085                           
  1086     0020                     ___lwmod@divisor:	
  1087                           ; 1 bytes @ 0x0
  1088                           
  1089                           
  1090                           ; 2 bytes @ 0x0
  1091     0020                     	ds	1
  1092     0021                     ___awdiv@sign:
  1093                           
  1094                           ; 1 bytes @ 0x1
  1095     0021                     	ds	1
  1096     0022                     ___awdiv@quotient:
  1097     0022                     ___lwmod@dividend:	
  1098                           ; 2 bytes @ 0x2
  1099                           
  1100                           
  1101                           ; 2 bytes @ 0x2
  1102     0022                     	ds	2
  1103     0024                     ?___awmod:
  1104     0024                     ___lwmod@counter:	
  1105                           ; 2 bytes @ 0x4
  1106                           
  1107     0024                     ___awmod@divisor:	
  1108                           ; 1 bytes @ 0x4
  1109                           
  1110                           
  1111                           ; 2 bytes @ 0x4
  1112     0024                     	ds	2
  1113     0026                     ___awmod@dividend:
  1114                           
  1115                           ; 2 bytes @ 0x6
  1116     0026                     	ds	2
  1117     0028                     ?_clcd_putch:
  1118     0028                     clcd_putch@addr:	
  1119                           ; 1 bytes @ 0x8
  1120                           
  1121                           
  1122                           ; 1 bytes @ 0x8
  1123     0028                     	ds	1
  1124     0029                     clcd_putch@data:
  1125                           
  1126                           ; 1 bytes @ 0x9
  1127     0029                     	ds	1
  1128     002A                     ?_set_time:
  1129     002A                     ?_set_temp:	
  1130                           ; 1 bytes @ 0xA
  1131                           
  1132     002A                     set_time@reset_flag:	
  1133                           ; 1 bytes @ 0xA
  1134                           
  1135     002A                     set_temp@reset_flag:	
  1136                           ; 1 bytes @ 0xA
  1137                           
  1138     002A                     ??_display_power_screen:	
  1139                           ; 1 bytes @ 0xA
  1140                           
  1141     002A                     ??_display_time:	
  1142                           ; 1 bytes @ 0xA
  1143                           
  1144                           
  1145                           ; 1 bytes @ 0xA
  1146     002A                     	ds	1
  1147     002B                     ??_set_time:
  1148     002B                     ??_set_temp:	
  1149                           ; 1 bytes @ 0xB
  1150                           
  1151                           
  1152                           ; 1 bytes @ 0xB
  1153     002B                     	ds	2
  1154     002D                     display_power_screen@i:
  1155     002D                     set_time@key:	
  1156                           ; 1 bytes @ 0xD
  1157                           
  1158     002D                     set_temp@key:	
  1159                           ; 1 bytes @ 0xD
  1160                           
  1161                           
  1162                           ; 1 bytes @ 0xD
  1163     002D                     	ds	1
  1164     002E                     display_power_screen@i_164:
  1165                           
  1166                           ; 1 bytes @ 0xE
  1167     002E                     	ds	1
  1168     002F                     ??_main:
  1169                           
  1170                           ; 1 bytes @ 0xF
  1171     002F                     	ds	3
  1172     0032                     main@reset_flag:
  1173                           
  1174                           ; 1 bytes @ 0x12
  1175     0032                     	ds	1
  1176     0033                     main@key:
  1177                           
  1178                           ; 1 bytes @ 0x13
  1179     0033                     	ds	1
  1180                           
  1181                           	psect	maintext
  1182     0315                     __pmaintext:	
  1183 ;;
  1184 ;;Main: autosize = 0, tempsize = 3, incstack = 0, save=0
  1185 ;;
  1186 ;; *************** function _main *****************
  1187 ;; Defined at:
  1188 ;;		line 23 in file "main.c"
  1189 ;; Parameters:    Size  Location     Type
  1190 ;;		None
  1191 ;; Auto vars:     Size  Location     Type
  1192 ;;  key             1   19[BANK0 ] unsigned char 
  1193 ;;  reset_flag      1   18[BANK0 ] unsigned char 
  1194 ;; Return value:  Size  Location     Type
  1195 ;;                  1    wreg      void 
  1196 ;; Registers used:
  1197 ;;		wreg, fsr0l, fsr0h, status,2, status,0, pclath, btemp1, cstack
  1198 ;; Tracked objects:
  1199 ;;		On entry : B00/0
  1200 ;;		On exit  : 0/0
  1201 ;;		Unchanged: 0/0
  1202 ;; Data sizes:     COMMON   BANK0   BANK1   BANK3   BANK2
  1203 ;;      Params:         0       0       0       0       0
  1204 ;;      Locals:         0       2       0       0       0
  1205 ;;      Temps:          0       3       0       0       0
  1206 ;;      Totals:         0       5       0       0       0
  1207 ;;Total ram usage:        5 bytes
  1208 ;; Hardware stack levels required when called: 5
  1209 ;; This function calls:
  1210 ;;		_clcd_print
  1211 ;;		_clear_screen
  1212 ;;		_display_modes
  1213 ;;		_display_power_screen
  1214 ;;		_display_time
  1215 ;;		_heat_food
  1216 ;;		_init_config
  1217 ;;		_read_matrix_keypad
  1218 ;;		_set_temp
  1219 ;;		_set_time
  1220 ;; This function is called by:
  1221 ;;		Startup code after reset
  1222 ;; This function uses a non-reentrant model
  1223 ;;
  1224                           
  1225     0315                     _main:	
  1226                           ;psect for function _main
  1227                           
  1228     0315                     l2522:	
  1229                           ;incstack = 0
  1230                           ; Regs used in _main: [wreg-fsr0h+status,2+status,0+pclath+btemp1+cstack]
  1231                           
  1232                           
  1233                           ;main.c: 24:                 _delay((unsigned long)((3000)*(20000000/4000.0)));
  1234     0315  120A  118A  27EB  120A  118A  	fcall	_init_config
  1235     031A                     l2524:
  1236                           
  1237                           ;main.c: 28:             else if(key == 2);main.c: 29:             {
  1238     031A  3001               	movlw	1
  1239     031B  120A  158A  262C  120A  118A  	fcall	_read_matrix_keypad
  1240     0320  1283               	bcf	3,5	;RP0=0, select bank0
  1241     0321  1303               	bcf	3,6	;RP1=0, select bank0
  1242     0322  00B3               	movwf	main@key
  1243     0323                     l2526:
  1244                           
  1245                           ;main.c: 30:                 screen_flag = 0x40;
  1246     0323  3020               	movlw	32
  1247     0324  0640               	xorwf	_screen_flag,w
  1248     0325  1D03               	btfss	3,2
  1249     0326  2B28               	goto	u2711
  1250     0327  2B29               	goto	u2710
  1251     0328                     u2711:
  1252     0328  2B7A               	goto	l2560
  1253     0329                     u2710:
  1254     0329                     l2528:
  1255                           
  1256                           ;main.c: 31:                 reset_flag = 0x31;;main.c: 32:                 clear_screen
      +                          ();
  1257     0329  0333               	decf	main@key,w
  1258     032A  1D03               	btfss	3,2
  1259     032B  2B2D               	goto	u2721
  1260     032C  2B2E               	goto	u2720
  1261     032D                     u2721:
  1262     032D  2B56               	goto	l2542
  1263     032E                     u2720:
  1264     032E                     l2530:
  1265                           
  1266                           ;main.c: 33:             };main.c: 34:             else if (key == 3)
  1267     032E  3030               	movlw	48
  1268     032F  00C0               	movwf	_screen_flag
  1269     0330                     l2532:
  1270                           
  1271                           ;main.c: 35:             {
  1272     0330  120A  158A  25F3  120A  118A  	fcall	_clear_screen
  1273     0335                     l2534:
  1274                           
  1275                           ;main.c: 36:                 screen_flag = 0x50;
  1276     0335  306C               	movlw	(low ((STR_1-__stringbase)| (0+32768)))& (0+255)
  1277     0336  00F6               	movwf	clcd_print@str
  1278     0337  30C2               	movlw	194
  1279     0338  00F7               	movwf	clcd_print@addr
  1280     0339  120A  158A  264F  120A  118A  	fcall	_clcd_print
  1281     033E                     l2536:
  1282                           
  1283                           ;main.c: 37:                 reset_flag = 0x31;
  1284     033E  304D               	movlw	77
  1285     033F  1283               	bcf	3,5	;RP0=0, select bank0
  1286     0340  1303               	bcf	3,6	;RP1=0, select bank0
  1287     0341  00B1               	movwf	??_main+2
  1288     0342  3019               	movlw	25
  1289     0343  00B0               	movwf	??_main+1
  1290     0344  304F               	movlw	79
  1291     0345  00AF               	movwf	??_main
  1292     0346                     u2837:
  1293     0346  0BAF               	decfsz	??_main,f
  1294     0347  2B46               	goto	u2837
  1295     0348  0BB0               	decfsz	??_main+1,f
  1296     0349  2B46               	goto	u2837
  1297     034A  0BB1               	decfsz	??_main+2,f
  1298     034B  2B46               	goto	u2837
  1299     034C                     l2538:
  1300                           
  1301                           ;main.c: 38:                 clear_screen();
  1302     034C  120A  158A  25F3  120A  118A  	fcall	_clear_screen
  1303     0351                     l2540:
  1304                           
  1305                           ;main.c: 39:             }
  1306     0351  3031               	movlw	49
  1307     0352  1283               	bcf	3,5	;RP0=0, select bank0
  1308     0353  1303               	bcf	3,6	;RP1=0, select bank0
  1309     0354  00B2               	movwf	main@reset_flag
  1310                           
  1311                           ;main.c: 40:             else if(key == 4)
  1312     0355  2C02               	goto	l2610
  1313     0356                     l2542:
  1314     0356  3002               	movlw	2
  1315     0357  0633               	xorwf	main@key,w
  1316     0358  1D03               	btfss	3,2
  1317     0359  2B5B               	goto	u2731
  1318     035A  2B5C               	goto	u2730
  1319     035B                     u2731:
  1320     035B  2B66               	goto	l2548
  1321     035C                     u2730:
  1322     035C                     l2544:
  1323                           
  1324                           ;main.c: 42:                 screen_flag = 0x60;;main.c: 43:                 clear_scree
      +                          n();
  1325     035C  3040               	movlw	64
  1326     035D  00C0               	movwf	_screen_flag
  1327                           
  1328                           ;main.c: 44:             }
  1329     035E  3031               	movlw	49
  1330     035F  00B2               	movwf	main@reset_flag
  1331     0360                     l2546:
  1332                           
  1333                           ;main.c: 45:         }
  1334     0360  120A  158A  25F3  120A  118A  	fcall	_clear_screen
  1335                           
  1336                           ;main.c: 46: 
  1337     0365  2C02               	goto	l2610
  1338     0366                     l2548:
  1339     0366  3003               	movlw	3
  1340     0367  0633               	xorwf	main@key,w
  1341     0368  1D03               	btfss	3,2
  1342     0369  2B6B               	goto	u2741
  1343     036A  2B6C               	goto	u2740
  1344     036B                     u2741:
  1345     036B  2B71               	goto	l2554
  1346     036C                     u2740:
  1347     036C                     l2550:
  1348                           
  1349                           ;main.c: 48:         {;main.c: 49:             if(key == 4)
  1350     036C  3050               	movlw	80
  1351     036D  00C0               	movwf	_screen_flag
  1352                           
  1353                           ;main.c: 50:             {
  1354     036E  3031               	movlw	49
  1355     036F  00B2               	movwf	main@reset_flag
  1356     0370  2B60               	goto	l2546
  1357     0371                     l2554:
  1358     0371  3004               	movlw	4
  1359     0372  0633               	xorwf	main@key,w
  1360     0373  1D03               	btfss	3,2
  1361     0374  2B76               	goto	u2751
  1362     0375  2B77               	goto	u2750
  1363     0376                     u2751:
  1364     0376  2C02               	goto	l2610
  1365     0377                     u2750:
  1366     0377                     l2556:
  1367                           
  1368                           ;main.c: 54:                     min++;;main.c: 55:                     sec = sec - 60;
  1369     0377  3060               	movlw	96
  1370     0378  00C0               	movwf	_screen_flag
  1371     0379  2B60               	goto	l2546
  1372     037A                     l2560:
  1373     037A  3070               	movlw	112
  1374     037B  0640               	xorwf	_screen_flag,w
  1375     037C  1D03               	btfss	3,2
  1376     037D  2B7F               	goto	u2761
  1377     037E  2B80               	goto	u2760
  1378     037F                     u2761:
  1379     037F  2BA6               	goto	l2576
  1380     0380                     u2760:
  1381     0380                     l2562:
  1382                           
  1383                           ;main.c: 61:             };main.c: 62:             else if (key == 6)
  1384     0380  3004               	movlw	4
  1385     0381  0633               	xorwf	main@key,w
  1386     0382  1D03               	btfss	3,2
  1387     0383  2B85               	goto	u2771
  1388     0384  2B86               	goto	u2770
  1389     0385                     u2771:
  1390     0385  2B94               	goto	l61
  1391     0386                     u2770:
  1392     0386                     l2564:
  1393                           
  1394                           ;main.c: 63:             {;main.c: 64:                 screen_flag = 0x90;
  1395     0386  083F               	movf	_sec,w
  1396     0387  3E1E               	addlw	30
  1397     0388  00BF               	movwf	_sec
  1398     0389                     l2566:
  1399                           
  1400                           ;main.c: 65:             }
  1401     0389  303C               	movlw	60
  1402     038A  023F               	subwf	_sec,w
  1403     038B  1C03               	skipc
  1404     038C  2B8E               	goto	u2781
  1405     038D  2B8F               	goto	u2780
  1406     038E                     u2781:
  1407     038E  2B94               	goto	l61
  1408     038F                     u2780:
  1409     038F                     l2568:
  1410                           
  1411                           ;main.c: 66:         };main.c: 67:         else if (screen_flag == 0x80)
  1412     038F  3001               	movlw	1
  1413     0390  07BE               	addwf	_min,f
  1414                           
  1415                           ;main.c: 68:         {
  1416     0391  083F               	movf	_sec,w
  1417     0392  3EC4               	addlw	196
  1418     0393  00BF               	movwf	_sec
  1419     0394                     l61:	
  1420                           ;main.c: 70:             {
  1421                           
  1422                           
  1423                           ;main.c: 71: 
  1424     0394  3005               	movlw	5
  1425     0395  0633               	xorwf	main@key,w
  1426     0396  1D03               	btfss	3,2
  1427     0397  2B99               	goto	u2791
  1428     0398  2B9A               	goto	u2790
  1429     0399                     u2791:
  1430     0399  2B9D               	goto	l2572
  1431     039A                     u2790:
  1432     039A                     l2570:
  1433                           
  1434                           ;main.c: 72:                 TMR2ON = 1;;main.c: 73:                 RC2 = 1;
  1435     039A  3080               	movlw	128
  1436     039B  00C0               	movwf	_screen_flag
  1437                           
  1438                           ;main.c: 74:                 screen_flag = 0x70;
  1439     039C  2C02               	goto	l2610
  1440     039D                     l2572:
  1441     039D  3006               	movlw	6
  1442     039E  0633               	xorwf	main@key,w
  1443     039F  1D03               	btfss	3,2
  1444     03A0  2BA2               	goto	u2801
  1445     03A1  2BA3               	goto	u2800
  1446     03A2                     u2801:
  1447     03A2  2C02               	goto	l2610
  1448     03A3                     u2800:
  1449     03A3                     l2574:
  1450                           
  1451                           ;main.c: 76:         };main.c: 77: 
  1452     03A3  3090               	movlw	144
  1453     03A4  00C0               	movwf	_screen_flag
  1454     03A5  2C02               	goto	l2610
  1455     03A6                     l2576:
  1456     03A6  3080               	movlw	128
  1457     03A7  0640               	xorwf	_screen_flag,w
  1458     03A8  1D03               	btfss	3,2
  1459     03A9  2BAB               	goto	u2811
  1460     03AA  2BAC               	goto	u2810
  1461     03AB                     u2811:
  1462     03AB  2C02               	goto	l2610
  1463     03AC                     u2810:
  1464     03AC                     l2578:
  1465                           
  1466                           ;main.c: 81:             case 0x10:;main.c: 82:                 display_power_screen();
  1467     03AC  3004               	movlw	4
  1468     03AD  0633               	xorwf	main@key,w
  1469     03AE  1D03               	btfss	3,2
  1470     03AF  2BB1               	goto	u2821
  1471     03B0  2BB2               	goto	u2820
  1472     03B1                     u2821:
  1473     03B1  2C02               	goto	l2610
  1474     03B2                     u2820:
  1475     03B2                     l2580:
  1476                           
  1477                           ;main.c: 83:                 clear_screen();;main.c: 85:                 break;
  1478     03B2  1512               	bsf	18,2	;volatile
  1479                           
  1480                           ;main.c: 86:             case 0x20:
  1481     03B3  1507               	bsf	7,2	;volatile
  1482                           
  1483                           ;main.c: 87:                 display_modes();
  1484     03B4  3070               	movlw	112
  1485     03B5  00C0               	movwf	_screen_flag
  1486     03B6  2C02               	goto	l2610
  1487     03B7                     l2582:
  1488                           
  1489                           ;main.c: 95:             case 0x40:
  1490     03B7  120A  118A  2781  120A  118A  	fcall	_display_power_screen
  1491     03BC                     l2584:
  1492                           
  1493                           ;main.c: 96:                 set_time(key, reset_flag);
  1494     03BC  120A  158A  25F3  120A  118A  	fcall	_clear_screen
  1495     03C1                     l2586:
  1496                           
  1497                           ;main.c: 97:                 break;
  1498     03C1  3020               	movlw	32
  1499     03C2  1283               	bcf	3,5	;RP0=0, select bank0
  1500     03C3  1303               	bcf	3,6	;RP1=0, select bank0
  1501     03C4  00C0               	movwf	_screen_flag
  1502                           
  1503                           ;main.c: 98:             case 0x50:
  1504     03C5  2C21               	goto	l71
  1505     03C6                     l2588:
  1506                           
  1507                           ;main.c: 100:                 break;
  1508     03C6  120A  158A  2674  120A  118A  	fcall	_display_modes
  1509                           
  1510                           ;main.c: 101:             case 0x60:
  1511     03CB  2C21               	goto	l71
  1512     03CC                     l2590:
  1513                           
  1514                           ;main.c: 103:                 clear_screen();
  1515     03CC  0832               	movf	main@reset_flag,w
  1516     03CD  00AA               	movwf	set_time@reset_flag
  1517     03CE  0833               	movf	main@key,w
  1518     03CF  120A  118A  21CC  120A  118A  	fcall	_set_time
  1519                           
  1520                           ;main.c: 104:                 screen_flag = 0x70;
  1521     03D4  2C21               	goto	l71
  1522     03D5                     l2592:
  1523                           
  1524                           ;main.c: 106:             case 0x80:
  1525     03D5  120A  118A  25E9  120A  118A  	fcall	_display_time
  1526                           
  1527                           ;main.c: 107:                 TMR2ON = 0;
  1528     03DA  2C21               	goto	l71
  1529     03DB                     l2594:
  1530                           
  1531                           ;main.c: 109:                 break;
  1532     03DB  0832               	movf	main@reset_flag,w
  1533     03DC  00AA               	movwf	set_time@reset_flag
  1534     03DD  0833               	movf	main@key,w
  1535     03DE  120A  118A  21CC  120A  118A  	fcall	_set_time
  1536                           
  1537                           ;main.c: 110:             case 0x90:
  1538     03E3  2C21               	goto	l71
  1539     03E4                     l2596:
  1540                           
  1541                           ;main.c: 112:                 RC2 = 0;
  1542     03E4  0832               	movf	main@reset_flag,w
  1543     03E5  00AA               	movwf	set_temp@reset_flag
  1544     03E6  0833               	movf	main@key,w
  1545     03E7  120A  118A  202D  120A  118A  	fcall	_set_temp
  1546                           
  1547                           ;main.c: 113:                 clear_screen();
  1548     03EC  2C21               	goto	l71
  1549     03ED                     l2598:
  1550                           
  1551                           ;main.c: 115:                 break;
  1552     03ED  120A  158A  25CE  120A  118A  	fcall	_heat_food
  1553     03F2                     l2600:
  1554                           
  1555                           ;main.c: 116:         }
  1556     03F2  120A  158A  25F3  120A  118A  	fcall	_clear_screen
  1557     03F7                     l2602:
  1558                           
  1559                           ;main.c: 117:         reset_flag = 0xFF;
  1560     03F7  3070               	movlw	112
  1561     03F8  1283               	bcf	3,5	;RP0=0, select bank0
  1562     03F9  1303               	bcf	3,6	;RP1=0, select bank0
  1563     03FA  00C0               	movwf	_screen_flag
  1564                           
  1565                           ;main.c: 118: 
  1566     03FB  2C21               	goto	l71
  1567     03FC                     l78:	
  1568                           ;main.c: 119:     }
  1569                           
  1570                           
  1571                           ;main.c: 120:     return;
  1572     03FC  1112               	bcf	18,2	;volatile
  1573                           
  1574                           ;main.c: 121: }
  1575     03FD  1107               	bcf	7,2	;volatile
  1576     03FE  2C21               	goto	l71
  1577     03FF                     l79:
  1578     03FF  1112               	bcf	18,2	;volatile
  1579     0400  1107               	bcf	7,2	;volatile
  1580     0401  2BBC               	goto	l2584
  1581     0402                     l2610:
  1582     0402  1283               	bcf	3,5	;RP0=0, select bank0
  1583     0403  1303               	bcf	3,6	;RP1=0, select bank0
  1584     0404  0840               	movf	_screen_flag,w
  1585                           
  1586                           ; Switch size 1, requested type "simple"
  1587                           ; Number of cases is 9, Range of values is 16 to 144
  1588                           ; switch strategies available:
  1589                           ; Name         Instructions Cycles
  1590                           ; simple_byte           28    15 (average)
  1591                           ; jumptable            263     9 (fixed)
  1592                           ;	Chosen strategy is simple_byte
  1593     0405  3A10               	xorlw	16	; case 16
  1594     0406  1903               	skipnz
  1595     0407  2BB7               	goto	l2582
  1596     0408  3A30               	xorlw	48	; case 32
  1597     0409  1903               	skipnz
  1598     040A  2BC6               	goto	l2588
  1599     040B  3A10               	xorlw	16	; case 48
  1600     040C  1903               	skipnz
  1601     040D  2BCC               	goto	l2590
  1602     040E  3A70               	xorlw	112	; case 64
  1603     040F  1903               	skipnz
  1604     0410  2BDB               	goto	l2594
  1605     0411  3A10               	xorlw	16	; case 80
  1606     0412  1903               	skipnz
  1607     0413  2BE4               	goto	l2596
  1608     0414  3A30               	xorlw	48	; case 96
  1609     0415  1903               	skipnz
  1610     0416  2BED               	goto	l2598
  1611     0417  3A10               	xorlw	16	; case 112
  1612     0418  1903               	skipnz
  1613     0419  2BD5               	goto	l2592
  1614     041A  3AF0               	xorlw	240	; case 128
  1615     041B  1903               	skipnz
  1616     041C  2BFC               	goto	l78
  1617     041D  3A10               	xorlw	16	; case 144
  1618     041E  1903               	skipnz
  1619     041F  2BFF               	goto	l79
  1620     0420  2C21               	goto	l71
  1621     0421                     l71:
  1622     0421  30FF               	movlw	255
  1623     0422  1283               	bcf	3,5	;RP0=0, select bank0
  1624     0423  1303               	bcf	3,6	;RP1=0, select bank0
  1625     0424  00B2               	movwf	main@reset_flag
  1626     0425  2B1A               	goto	l2524
  1627     0426  120A  118A  280C   	ljmp	start
  1628     0429                     __end_of_main:
  1629                           
  1630                           	psect	text1
  1631     01CC                     __ptext1:	
  1632 ;; *************** function _set_time *****************
  1633 ;; Defined at:
  1634 ;;		line 47 in file "micro_oven.c"
  1635 ;; Parameters:    Size  Location     Type
  1636 ;;  key             1    wreg     unsigned char 
  1637 ;;  reset_flag      1   10[BANK0 ] unsigned char 
  1638 ;; Auto vars:     Size  Location     Type
  1639 ;;  key             1   13[BANK0 ] unsigned char 
  1640 ;; Return value:  Size  Location     Type
  1641 ;;                  1    wreg      void 
  1642 ;; Registers used:
  1643 ;;		wreg, fsr0l, fsr0h, status,2, status,0, pclath, cstack
  1644 ;; Tracked objects:
  1645 ;;		On entry : 0/0
  1646 ;;		On exit  : 0/0
  1647 ;;		Unchanged: 0/0
  1648 ;; Data sizes:     COMMON   BANK0   BANK1   BANK3   BANK2
  1649 ;;      Params:         0       1       0       0       0
  1650 ;;      Locals:         0       1       0       0       0
  1651 ;;      Temps:          0       2       0       0       0
  1652 ;;      Totals:         0       4       0       0       0
  1653 ;;Total ram usage:        4 bytes
  1654 ;; Hardware stack levels used: 1
  1655 ;; Hardware stack levels required when called: 2
  1656 ;; This function calls:
  1657 ;;		___awdiv
  1658 ;;		___awmod
  1659 ;;		___bmul
  1660 ;;		_clcd_print
  1661 ;;		_clcd_putch
  1662 ;;		_clear_screen
  1663 ;; This function is called by:
  1664 ;;		_main
  1665 ;; This function uses a non-reentrant model
  1666 ;;
  1667                           
  1668     01CC                     _set_time:	
  1669                           ;psect for function _set_time
  1670                           
  1671                           
  1672                           ;incstack = 0
  1673                           ; Regs used in _set_time: [wreg-fsr0h+status,2+status,0+pclath+cstack]
  1674                           ;set_time@key stored from wreg
  1675     01CC  1283               	bcf	3,5	;RP0=0, select bank0
  1676     01CD  1303               	bcf	3,6	;RP1=0, select bank0
  1677     01CE  00AD               	movwf	set_time@key
  1678     01CF                     l2348:
  1679                           
  1680                           ;micro_oven.c: 47: void set_time(unsigned char key, unsigned char reset_flag);micro_oven
      +                          .c: 48: {;micro_oven.c: 49:     static unsigned char blink_pos = 0;;micro_oven.c: 50:   
      +                            static unsigned char key_count = 0;;micro_oven.c: 51:     static unsigned char delay, 
      +                          display_blank;;micro_oven.c: 52:     if (reset_flag == 0x31)
  1681     01CF  3031               	movlw	49
  1682     01D0  062A               	xorwf	set_time@reset_flag,w
  1683     01D1  1D03               	btfss	3,2
  1684     01D2  29D4               	goto	u2411
  1685     01D3  29D5               	goto	u2410
  1686     01D4                     u2411:
  1687     01D4  29DA               	goto	l2352
  1688     01D5                     u2410:
  1689     01D5                     l2350:
  1690                           
  1691                           ;micro_oven.c: 53:     {;micro_oven.c: 54:         sec = 0;
  1692     01D5  01BF               	clrf	_sec
  1693                           
  1694                           ;micro_oven.c: 55:         min = 0;
  1695     01D6  01BE               	clrf	_min
  1696                           
  1697                           ;micro_oven.c: 56:         key = 0;
  1698     01D7  01AD               	clrf	set_time@key
  1699                           
  1700                           ;micro_oven.c: 57:         key_count = 0;
  1701     01D8  01BB               	clrf	set_time@key_count
  1702                           
  1703                           ;micro_oven.c: 58:         blink_pos = 0;
  1704     01D9  01BC               	clrf	set_time@blink_pos
  1705     01DA                     l2352:
  1706                           
  1707                           ;micro_oven.c: 62:     clcd_print("SET TIME (MM:SS)", (0x80 + 0));
  1708     01DA  3001               	movlw	(low ((STR_8-__stringbase)| (0+32768)))& (0+255)
  1709     01DB  00F6               	movwf	clcd_print@str
  1710     01DC  3080               	movlw	128
  1711     01DD  00F7               	movwf	clcd_print@addr
  1712     01DE  120A  158A  264F  120A  118A  	fcall	_clcd_print
  1713     01E3                     l2354:
  1714                           
  1715                           ;micro_oven.c: 63:     clcd_print("TIME:", (0xC0 + 0));
  1716     01E3  30D8               	movlw	(low ((STR_9-__stringbase)| (0+32768)))& (0+255)
  1717     01E4  00F6               	movwf	clcd_print@str
  1718     01E5  30C0               	movlw	192
  1719     01E6  00F7               	movwf	clcd_print@addr
  1720     01E7  120A  158A  264F  120A  118A  	fcall	_clcd_print
  1721     01EC                     l2356:
  1722                           
  1723                           ;micro_oven.c: 64:     clcd_putch(':', (0xC0 + 7));
  1724     01EC  30C7               	movlw	199
  1725     01ED  1283               	bcf	3,5	;RP0=0, select bank0
  1726     01EE  1303               	bcf	3,6	;RP1=0, select bank0
  1727     01EF  00A8               	movwf	clcd_putch@addr
  1728     01F0  303A               	movlw	58
  1729     01F1  120A  158A  2617  120A  118A  	fcall	_clcd_putch
  1730     01F6                     l2358:
  1731                           
  1732                           ;micro_oven.c: 66:     clcd_print("*:CLEAR #:ENTER", (0xD0 + 0));
  1733     01F6  3012               	movlw	(low ((STR_10-__stringbase)| (0+32768)))& (0+255)
  1734     01F7  00F6               	movwf	clcd_print@str
  1735     01F8  30D0               	movlw	208
  1736     01F9  00F7               	movwf	clcd_print@addr
  1737     01FA  120A  158A  264F  120A  118A  	fcall	_clcd_print
  1738     01FF                     l2360:
  1739                           
  1740                           ;micro_oven.c: 72:     if (key != '*' && key != '#' && key != 0xFF)
  1741     01FF  302A               	movlw	42
  1742     0200  1283               	bcf	3,5	;RP0=0, select bank0
  1743     0201  1303               	bcf	3,6	;RP1=0, select bank0
  1744     0202  062D               	xorwf	set_time@key,w
  1745     0203  1903               	btfsc	3,2
  1746     0204  2A06               	goto	u2421
  1747     0205  2A07               	goto	u2420
  1748     0206                     u2421:
  1749     0206  2A3D               	goto	l2380
  1750     0207                     u2420:
  1751     0207                     l2362:
  1752     0207  3023               	movlw	35
  1753     0208  062D               	xorwf	set_time@key,w
  1754     0209  1903               	btfsc	3,2
  1755     020A  2A0C               	goto	u2431
  1756     020B  2A0D               	goto	u2430
  1757     020C                     u2431:
  1758     020C  2A3D               	goto	l2380
  1759     020D                     u2430:
  1760     020D                     l2364:
  1761     020D  0A2D               	incf	set_time@key,w
  1762     020E  1903               	btfsc	3,2
  1763     020F  2A11               	goto	u2441
  1764     0210  2A12               	goto	u2440
  1765     0211                     u2441:
  1766     0211  2A3D               	goto	l2380
  1767     0212                     u2440:
  1768     0212                     l2366:
  1769                           
  1770                           ;micro_oven.c: 73:     {;micro_oven.c: 74:         key_count++;
  1771     0212  3001               	movlw	1
  1772     0213  07BB               	addwf	set_time@key_count,f
  1773     0214                     l2368:
  1774                           
  1775                           ;micro_oven.c: 75:         if(key_count <= 3)
  1776     0214  3004               	movlw	4
  1777     0215  023B               	subwf	set_time@key_count,w
  1778     0216  1803               	skipnc
  1779     0217  2A19               	goto	u2451
  1780     0218  2A1A               	goto	u2450
  1781     0219                     u2451:
  1782     0219  2A28               	goto	l2374
  1783     021A                     u2450:
  1784     021A                     l2370:
  1785                           
  1786                           ;micro_oven.c: 76:         {;micro_oven.c: 77:             sec = sec * 10 + key;
  1787     021A  300A               	movlw	10
  1788     021B  00F2               	movwf	___bmul@multiplicand
  1789     021C  083F               	movf	_sec,w
  1790     021D  120A  158A  2604  120A  118A  	fcall	___bmul
  1791     0222  1283               	bcf	3,5	;RP0=0, select bank0
  1792     0223  1303               	bcf	3,6	;RP1=0, select bank0
  1793     0224  072D               	addwf	set_time@key,w
  1794     0225  00BF               	movwf	_sec
  1795     0226                     l2372:
  1796                           
  1797                           ;micro_oven.c: 78:             blink_pos = 0;
  1798     0226  01BC               	clrf	set_time@blink_pos
  1799                           
  1800                           ;micro_oven.c: 79:         }
  1801     0227  2A65               	goto	l2402
  1802     0228                     l2374:
  1803     0228  3006               	movlw	6
  1804     0229  023B               	subwf	set_time@key_count,w
  1805     022A  1803               	skipnc
  1806     022B  2A2D               	goto	u2461
  1807     022C  2A2E               	goto	u2460
  1808     022D                     u2461:
  1809     022D  2A65               	goto	l2402
  1810     022E                     u2460:
  1811     022E                     l2376:
  1812                           
  1813                           ;micro_oven.c: 81:         {;micro_oven.c: 82:             min = min * 10 + key;
  1814     022E  300A               	movlw	10
  1815     022F  00F2               	movwf	___bmul@multiplicand
  1816     0230  083E               	movf	_min,w
  1817     0231  120A  158A  2604  120A  118A  	fcall	___bmul
  1818     0236  1283               	bcf	3,5	;RP0=0, select bank0
  1819     0237  1303               	bcf	3,6	;RP1=0, select bank0
  1820     0238  072D               	addwf	set_time@key,w
  1821     0239  00BE               	movwf	_min
  1822     023A                     l2378:
  1823                           
  1824                           ;micro_oven.c: 83:             blink_pos = 1;
  1825     023A  3001               	movlw	1
  1826     023B  00BC               	movwf	set_time@blink_pos
  1827     023C  2A65               	goto	l2402
  1828     023D                     l2380:
  1829     023D  302A               	movlw	42
  1830     023E  062D               	xorwf	set_time@key,w
  1831     023F  1D03               	btfss	3,2
  1832     0240  2A42               	goto	u2471
  1833     0241  2A43               	goto	u2470
  1834     0242                     u2471:
  1835     0242  2A54               	goto	l2392
  1836     0243                     u2470:
  1837     0243                     l2382:
  1838                           
  1839                           ;micro_oven.c: 89:     {;micro_oven.c: 90:         if (blink_pos == 0)
  1840     0243  083C               	movf	set_time@blink_pos,w
  1841     0244  1D03               	btfss	3,2
  1842     0245  2A47               	goto	u2481
  1843     0246  2A48               	goto	u2480
  1844     0247                     u2481:
  1845     0247  2A4B               	goto	l2386
  1846     0248                     u2480:
  1847     0248                     l2384:
  1848                           
  1849                           ;micro_oven.c: 91:         {;micro_oven.c: 92:             sec = 0;
  1850     0248  01BF               	clrf	_sec
  1851                           
  1852                           ;micro_oven.c: 93:             key_count = 0;
  1853     0249  01BB               	clrf	set_time@key_count
  1854                           
  1855                           ;micro_oven.c: 94:         }
  1856     024A  2A65               	goto	l2402
  1857     024B                     l2386:
  1858     024B  033C               	decf	set_time@blink_pos,w
  1859     024C  1D03               	btfss	3,2
  1860     024D  2A4F               	goto	u2491
  1861     024E  2A50               	goto	u2490
  1862     024F                     u2491:
  1863     024F  2A65               	goto	l2402
  1864     0250                     u2490:
  1865     0250                     l2388:
  1866                           
  1867                           ;micro_oven.c: 96:         {;micro_oven.c: 97:             min = 0;
  1868     0250  01BE               	clrf	_min
  1869     0251                     l2390:
  1870                           
  1871                           ;micro_oven.c: 98:             key_count = 2;
  1872     0251  3002               	movlw	2
  1873     0252  00BB               	movwf	set_time@key_count
  1874     0253  2A65               	goto	l2402
  1875     0254                     l2392:
  1876     0254  3023               	movlw	35
  1877     0255  062D               	xorwf	set_time@key,w
  1878     0256  1D03               	btfss	3,2
  1879     0257  2A59               	goto	u2501
  1880     0258  2A5A               	goto	u2500
  1881     0259                     u2501:
  1882     0259  2A65               	goto	l2402
  1883     025A                     u2500:
  1884     025A                     l2394:
  1885                           
  1886                           ;micro_oven.c: 104:     {;micro_oven.c: 105:         clear_screen();
  1887     025A  120A  158A  25F3  120A  118A  	fcall	_clear_screen
  1888     025F                     l2396:
  1889                           
  1890                           ;micro_oven.c: 107:         RC2 = 1;
  1891     025F  1283               	bcf	3,5	;RP0=0, select bank0
  1892     0260  1303               	bcf	3,6	;RP1=0, select bank0
  1893     0261  1507               	bsf	7,2	;volatile
  1894     0262                     l2398:
  1895                           
  1896                           ;micro_oven.c: 109:         TMR2ON = 1;
  1897     0262  1512               	bsf	18,2	;volatile
  1898     0263                     l2400:
  1899                           
  1900                           ;micro_oven.c: 111:         screen_flag = 0x70;
  1901     0263  3070               	movlw	112
  1902     0264  00C0               	movwf	_screen_flag
  1903     0265                     l2402:
  1904                           
  1905                           ;micro_oven.c: 115:     if (delay++ == 10)
  1906     0265  3001               	movlw	1
  1907     0266  07BA               	addwf	set_time@delay,f
  1908     0267  300B               	movlw	11
  1909     0268  063A               	xorwf	set_time@delay,w
  1910     0269  1D03               	btfss	3,2
  1911     026A  2A6C               	goto	u2511
  1912     026B  2A6D               	goto	u2510
  1913     026C                     u2511:
  1914     026C  2A76               	goto	l2408
  1915     026D                     u2510:
  1916     026D                     l2404:
  1917                           
  1918                           ;micro_oven.c: 116:     {;micro_oven.c: 117:         delay = 0;
  1919     026D  01BA               	clrf	set_time@delay
  1920     026E                     l2406:
  1921                           
  1922                           ;micro_oven.c: 118:         display_blank = !display_blank;
  1923     026E  0839               	movf	set_time@display_blank,w
  1924     026F  1903               	btfsc	3,2
  1925     0270  2A72               	goto	u2521
  1926     0271  2A74               	goto	u2520
  1927     0272                     u2521:
  1928     0272  3001               	movlw	1
  1929     0273  2A75               	goto	u2530
  1930     0274                     u2520:
  1931     0274  3000               	movlw	0
  1932     0275                     u2530:
  1933     0275  00B9               	movwf	set_time@display_blank
  1934     0276                     l2408:
  1935                           
  1936                           ;micro_oven.c: 121:     if (display_blank)
  1937     0276  0839               	movf	set_time@display_blank,w
  1938     0277  1903               	btfsc	3,2
  1939     0278  2A7A               	goto	u2541
  1940     0279  2A7B               	goto	u2540
  1941     027A                     u2541:
  1942     027A  2AA6               	goto	l2416
  1943     027B                     u2540:
  1944     027B                     l2410:
  1945                           
  1946                           ;micro_oven.c: 122:     {;micro_oven.c: 123:         if (blink_pos == 0)
  1947     027B  083C               	movf	set_time@blink_pos,w
  1948     027C  1D03               	btfss	3,2
  1949     027D  2A7F               	goto	u2551
  1950     027E  2A80               	goto	u2550
  1951     027F                     u2551:
  1952     027F  2A93               	goto	l2414
  1953     0280                     u2550:
  1954     0280                     l2412:
  1955                           
  1956                           ;micro_oven.c: 124:         {;micro_oven.c: 125:             clcd_putch(' ', (0xC0 + 8))
      +                          ;
  1957     0280  30C8               	movlw	200
  1958     0281  00A8               	movwf	clcd_putch@addr
  1959     0282  3020               	movlw	32
  1960     0283  120A  158A  2617  120A  118A  	fcall	_clcd_putch
  1961                           
  1962                           ;micro_oven.c: 126:             clcd_putch(' ', (0xC0 + 9));
  1963     0288  30C9               	movlw	201
  1964     0289  1283               	bcf	3,5	;RP0=0, select bank0
  1965     028A  1303               	bcf	3,6	;RP1=0, select bank0
  1966     028B  00A8               	movwf	clcd_putch@addr
  1967     028C  3020               	movlw	32
  1968     028D  120A  158A  2617  120A  118A  	fcall	_clcd_putch
  1969                           
  1970                           ;micro_oven.c: 127:         }
  1971     0292  2B14               	goto	l255
  1972     0293                     l2414:
  1973                           
  1974                           ;micro_oven.c: 129:         {;micro_oven.c: 130:             clcd_putch(' ', (0xC0 + 5))
      +                          ;
  1975     0293  30C5               	movlw	197
  1976     0294  00A8               	movwf	clcd_putch@addr
  1977     0295  3020               	movlw	32
  1978     0296  120A  158A  2617  120A  118A  	fcall	_clcd_putch
  1979                           
  1980                           ;micro_oven.c: 131:             clcd_putch(' ', (0xC0 + 6));
  1981     029B  30C6               	movlw	198
  1982     029C  1283               	bcf	3,5	;RP0=0, select bank0
  1983     029D  1303               	bcf	3,6	;RP1=0, select bank0
  1984     029E  00A8               	movwf	clcd_putch@addr
  1985     029F  3020               	movlw	32
  1986     02A0  120A  158A  2617  120A  118A  	fcall	_clcd_putch
  1987     02A5  2B14               	goto	l255
  1988     02A6                     l2416:
  1989                           
  1990                           ;micro_oven.c: 135:     {;micro_oven.c: 136:         clcd_putch( sec / 10 + '0', (0xC0 +
      +                           8));
  1991     02A6  30C8               	movlw	200
  1992     02A7  00A8               	movwf	clcd_putch@addr
  1993     02A8  300A               	movlw	10
  1994     02A9  00F2               	movwf	___awdiv@divisor
  1995     02AA  3000               	movlw	0
  1996     02AB  00F3               	movwf	___awdiv@divisor+1
  1997     02AC  083F               	movf	_sec,w
  1998     02AD  00AB               	movwf	??_set_time
  1999     02AE  01AC               	clrf	??_set_time+1
  2000     02AF  082B               	movf	??_set_time,w
  2001     02B0  00F4               	movwf	___awdiv@dividend
  2002     02B1  082C               	movf	??_set_time+1,w
  2003     02B2  00F5               	movwf	___awdiv@dividend+1
  2004     02B3  120A  118A  2429  120A  118A  	fcall	___awdiv
  2005     02B8  0872               	movf	?___awdiv,w
  2006     02B9  3E30               	addlw	48
  2007     02BA  120A  158A  2617  120A  118A  	fcall	_clcd_putch
  2008                           
  2009                           ;micro_oven.c: 137:         clcd_putch( sec % 10 + '0', (0xC0 + 9));
  2010     02BF  30C9               	movlw	201
  2011     02C0  1283               	bcf	3,5	;RP0=0, select bank0
  2012     02C1  1303               	bcf	3,6	;RP1=0, select bank0
  2013     02C2  00A8               	movwf	clcd_putch@addr
  2014     02C3  300A               	movlw	10
  2015     02C4  00A4               	movwf	___awmod@divisor
  2016     02C5  3000               	movlw	0
  2017     02C6  00A5               	movwf	___awmod@divisor+1
  2018     02C7  083F               	movf	_sec,w
  2019     02C8  00AB               	movwf	??_set_time
  2020     02C9  01AC               	clrf	??_set_time+1
  2021     02CA  082B               	movf	??_set_time,w
  2022     02CB  00A6               	movwf	___awmod@dividend
  2023     02CC  082C               	movf	??_set_time+1,w
  2024     02CD  00A7               	movwf	___awmod@dividend+1
  2025     02CE  120A  158A  27A7  120A  118A  	fcall	___awmod
  2026     02D3  1283               	bcf	3,5	;RP0=0, select bank0
  2027     02D4  1303               	bcf	3,6	;RP1=0, select bank0
  2028     02D5  0824               	movf	?___awmod,w
  2029     02D6  3E30               	addlw	48
  2030     02D7  120A  158A  2617  120A  118A  	fcall	_clcd_putch
  2031                           
  2032                           ;micro_oven.c: 139:         clcd_putch( min / 10 + '0', (0xC0 + 5));
  2033     02DC  30C5               	movlw	197
  2034     02DD  1283               	bcf	3,5	;RP0=0, select bank0
  2035     02DE  1303               	bcf	3,6	;RP1=0, select bank0
  2036     02DF  00A8               	movwf	clcd_putch@addr
  2037     02E0  300A               	movlw	10
  2038     02E1  00F2               	movwf	___awdiv@divisor
  2039     02E2  3000               	movlw	0
  2040     02E3  00F3               	movwf	___awdiv@divisor+1
  2041     02E4  083E               	movf	_min,w
  2042     02E5  00AB               	movwf	??_set_time
  2043     02E6  01AC               	clrf	??_set_time+1
  2044     02E7  082B               	movf	??_set_time,w
  2045     02E8  00F4               	movwf	___awdiv@dividend
  2046     02E9  082C               	movf	??_set_time+1,w
  2047     02EA  00F5               	movwf	___awdiv@dividend+1
  2048     02EB  120A  118A  2429  120A  118A  	fcall	___awdiv
  2049     02F0  0872               	movf	?___awdiv,w
  2050     02F1  3E30               	addlw	48
  2051     02F2  120A  158A  2617  120A  118A  	fcall	_clcd_putch
  2052                           
  2053                           ;micro_oven.c: 140:         clcd_putch( min % 10 + '0', (0xC0 + 6));
  2054     02F7  30C6               	movlw	198
  2055     02F8  1283               	bcf	3,5	;RP0=0, select bank0
  2056     02F9  1303               	bcf	3,6	;RP1=0, select bank0
  2057     02FA  00A8               	movwf	clcd_putch@addr
  2058     02FB  300A               	movlw	10
  2059     02FC  00A4               	movwf	___awmod@divisor
  2060     02FD  3000               	movlw	0
  2061     02FE  00A5               	movwf	___awmod@divisor+1
  2062     02FF  083E               	movf	_min,w
  2063     0300  00AB               	movwf	??_set_time
  2064     0301  01AC               	clrf	??_set_time+1
  2065     0302  082B               	movf	??_set_time,w
  2066     0303  00A6               	movwf	___awmod@dividend
  2067     0304  082C               	movf	??_set_time+1,w
  2068     0305  00A7               	movwf	___awmod@dividend+1
  2069     0306  120A  158A  27A7  120A  118A  	fcall	___awmod
  2070     030B  1283               	bcf	3,5	;RP0=0, select bank0
  2071     030C  1303               	bcf	3,6	;RP1=0, select bank0
  2072     030D  0824               	movf	?___awmod,w
  2073     030E  3E30               	addlw	48
  2074     030F  120A  158A  2617  120A  118A  	fcall	_clcd_putch
  2075     0314                     l255:
  2076     0314  0008               	return
  2077     0315                     __end_of_set_time:
  2078                           
  2079                           	psect	text2
  2080     0E04                     __ptext2:	
  2081 ;; *************** function ___bmul *****************
  2082 ;; Defined at:
  2083 ;;		line 4 in file "C:\Program Files\Microchip\xc8\v3.10\pic\sources\c99\common\Umul8.c"
  2084 ;; Parameters:    Size  Location     Type
  2085 ;;  multiplier      1    wreg     unsigned char 
  2086 ;;  multiplicand    1    2[COMMON] unsigned char 
  2087 ;; Auto vars:     Size  Location     Type
  2088 ;;  multiplier      1    4[COMMON] unsigned char 
  2089 ;;  product         1    3[COMMON] unsigned char 
  2090 ;; Return value:  Size  Location     Type
  2091 ;;                  1    wreg      unsigned char 
  2092 ;; Registers used:
  2093 ;;		wreg, status,2, status,0
  2094 ;; Tracked objects:
  2095 ;;		On entry : 0/0
  2096 ;;		On exit  : 0/0
  2097 ;;		Unchanged: 0/0
  2098 ;; Data sizes:     COMMON   BANK0   BANK1   BANK3   BANK2
  2099 ;;      Params:         1       0       0       0       0
  2100 ;;      Locals:         2       0       0       0       0
  2101 ;;      Temps:          0       0       0       0       0
  2102 ;;      Totals:         3       0       0       0       0
  2103 ;;Total ram usage:        3 bytes
  2104 ;; Hardware stack levels used: 1
  2105 ;; Hardware stack levels required when called: 1
  2106 ;; This function calls:
  2107 ;;		Nothing
  2108 ;; This function is called by:
  2109 ;;		_set_time
  2110 ;; This function uses a non-reentrant model
  2111 ;;
  2112                           
  2113     0E04                     ___bmul:	
  2114                           ;psect for function ___bmul
  2115                           
  2116                           
  2117                           ;incstack = 0
  2118                           ; Regs used in ___bmul: [wreg+status,2+status,0]
  2119                           ;___bmul@multiplier stored from wreg
  2120     0E04  00F4               	movwf	___bmul@multiplier
  2121     0E05                     l2230:
  2122     0E05  01F3               	clrf	___bmul@product
  2123     0E06                     l2232:
  2124     0E06  1C74               	btfss	___bmul@multiplier,0
  2125     0E07  2E09               	goto	u2141
  2126     0E08  2E0A               	goto	u2140
  2127     0E09                     u2141:
  2128     0E09  2E0C               	goto	l2236
  2129     0E0A                     u2140:
  2130     0E0A                     l2234:
  2131     0E0A  0872               	movf	___bmul@multiplicand,w
  2132     0E0B  07F3               	addwf	___bmul@product,f
  2133     0E0C                     l2236:
  2134     0E0C  1003               	clrc
  2135     0E0D  0DF2               	rlf	___bmul@multiplicand,f
  2136     0E0E                     l2238:
  2137     0E0E  1003               	clrc
  2138     0E0F  0CF4               	rrf	___bmul@multiplier,f
  2139     0E10  0874               	movf	___bmul@multiplier,w
  2140     0E11  1D03               	btfss	3,2
  2141     0E12  2E14               	goto	u2151
  2142     0E13  2E15               	goto	u2150
  2143     0E14                     u2151:
  2144     0E14  2E06               	goto	l2232
  2145     0E15                     u2150:
  2146     0E15                     l2240:
  2147     0E15  0873               	movf	___bmul@product,w
  2148     0E16                     l418:
  2149     0E16  0008               	return
  2150     0E17                     __end_of___bmul:
  2151                           
  2152                           	psect	text3
  2153     002D                     __ptext3:	
  2154 ;; *************** function _set_temp *****************
  2155 ;; Defined at:
  2156 ;;		line 143 in file "micro_oven.c"
  2157 ;; Parameters:    Size  Location     Type
  2158 ;;  key             1    wreg     unsigned char 
  2159 ;;  reset_flag      1   10[BANK0 ] unsigned char 
  2160 ;; Auto vars:     Size  Location     Type
  2161 ;;  key             1   13[BANK0 ] unsigned char 
  2162 ;; Return value:  Size  Location     Type
  2163 ;;                  1    wreg      void 
  2164 ;; Registers used:
  2165 ;;		wreg, fsr0l, fsr0h, status,2, status,0, pclath, cstack
  2166 ;; Tracked objects:
  2167 ;;		On entry : 0/0
  2168 ;;		On exit  : 0/0
  2169 ;;		Unchanged: 0/0
  2170 ;; Data sizes:     COMMON   BANK0   BANK1   BANK3   BANK2
  2171 ;;      Params:         0       1       0       0       0
  2172 ;;      Locals:         0       1       0       0       0
  2173 ;;      Temps:          0       2       0       0       0
  2174 ;;      Totals:         0       4       0       0       0
  2175 ;;Total ram usage:        4 bytes
  2176 ;; Hardware stack levels used: 1
  2177 ;; Hardware stack levels required when called: 2
  2178 ;; This function calls:
  2179 ;;		___awdiv
  2180 ;;		___awmod
  2181 ;;		___lwdiv
  2182 ;;		___lwmod
  2183 ;;		___wmul
  2184 ;;		_clcd_print
  2185 ;;		_clcd_putch
  2186 ;;		_clear_screen
  2187 ;; This function is called by:
  2188 ;;		_main
  2189 ;; This function uses a non-reentrant model
  2190 ;;
  2191                           
  2192     002D                     _set_temp:	
  2193                           ;psect for function _set_temp
  2194                           
  2195                           
  2196                           ;incstack = 0
  2197                           ; Regs used in _set_temp: [wreg-fsr0h+status,2+status,0+pclath+cstack]
  2198                           ;set_temp@key stored from wreg
  2199     002D  1283               	bcf	3,5	;RP0=0, select bank0
  2200     002E  1303               	bcf	3,6	;RP1=0, select bank0
  2201     002F  00AD               	movwf	set_temp@key
  2202     0030                     l2456:
  2203                           
  2204                           ;micro_oven.c: 143: void set_temp(unsigned char key, unsigned char reset_flag);micro_ove
      +                          n.c: 144: {;micro_oven.c: 145:     static unsigned char key_count = 0;;micro_oven.c: 146
      +                          :     static unsigned char delay, display_blank;;micro_oven.c: 147:     if (reset_flag =
      +                          = 0x31)
  2205     0030  3031               	movlw	49
  2206     0031  062A               	xorwf	set_temp@reset_flag,w
  2207     0032  1D03               	btfss	3,2
  2208     0033  2835               	goto	u2581
  2209     0034  2836               	goto	u2580
  2210     0035                     u2581:
  2211     0035  283A               	goto	l2460
  2212     0036                     u2580:
  2213     0036                     l2458:
  2214                           
  2215                           ;micro_oven.c: 148:     {;micro_oven.c: 149:         temp = 0;
  2216     0036  01B4               	clrf	_temp
  2217     0037  01B5               	clrf	_temp+1
  2218                           
  2219                           ;micro_oven.c: 150:         key = 0;
  2220     0038  01AD               	clrf	set_temp@key
  2221                           
  2222                           ;micro_oven.c: 151:         key_count = 0;
  2223     0039  01B8               	clrf	set_temp@key_count
  2224     003A                     l2460:
  2225                           
  2226                           ;micro_oven.c: 153:     if (delay++ == 5)
  2227     003A  3001               	movlw	1
  2228     003B  07B7               	addwf	set_temp@delay,f
  2229     003C  3006               	movlw	6
  2230     003D  0637               	xorwf	set_temp@delay,w
  2231     003E  1D03               	btfss	3,2
  2232     003F  2841               	goto	u2591
  2233     0040  2842               	goto	u2590
  2234     0041                     u2591:
  2235     0041  284B               	goto	l2466
  2236     0042                     u2590:
  2237     0042                     l2462:
  2238                           
  2239                           ;micro_oven.c: 154:     {;micro_oven.c: 155:         delay = 0;
  2240     0042  01B7               	clrf	set_temp@delay
  2241     0043                     l2464:
  2242                           
  2243                           ;micro_oven.c: 156:         display_blank = !display_blank;
  2244     0043  0836               	movf	set_temp@display_blank,w
  2245     0044  1903               	btfsc	3,2
  2246     0045  2847               	goto	u2601
  2247     0046  2849               	goto	u2600
  2248     0047                     u2601:
  2249     0047  3001               	movlw	1
  2250     0048  284A               	goto	u2610
  2251     0049                     u2600:
  2252     0049  3000               	movlw	0
  2253     004A                     u2610:
  2254     004A  00B6               	movwf	set_temp@display_blank
  2255     004B                     l2466:
  2256                           
  2257                           ;micro_oven.c: 160:     clcd_print("SET Temp <*C>", (0x80 + 0));
  2258     004B  3050               	movlw	(low ((STR_11-__stringbase)| (0+32768)))& (0+255)
  2259     004C  00F6               	movwf	clcd_print@str
  2260     004D  3080               	movlw	128
  2261     004E  00F7               	movwf	clcd_print@addr
  2262     004F  120A  158A  264F  120A  118A  	fcall	_clcd_print
  2263     0054                     l2468:
  2264                           
  2265                           ;micro_oven.c: 161:     clcd_print("TEMP=", (0xC0 + 0));
  2266     0054  30DE               	movlw	(low ((STR_12-__stringbase)| (0+32768)))& (0+255)
  2267     0055  00F6               	movwf	clcd_print@str
  2268     0056  30C0               	movlw	192
  2269     0057  00F7               	movwf	clcd_print@addr
  2270     0058  120A  158A  264F  120A  118A  	fcall	_clcd_print
  2271     005D                     l2470:
  2272                           
  2273                           ;micro_oven.c: 162:     clcd_print("*:CLEAR #:ENTER", (0xD0 + 0));
  2274     005D  3012               	movlw	(low ((STR_10-__stringbase)| (0+32768)))& (0+255)
  2275     005E  00F6               	movwf	clcd_print@str
  2276     005F  30D0               	movlw	208
  2277     0060  00F7               	movwf	clcd_print@addr
  2278     0061  120A  158A  264F  120A  118A  	fcall	_clcd_print
  2279     0066                     l2472:
  2280                           
  2281                           ;micro_oven.c: 166:     if (key != '*' && key != '#' && key != 0xFF)
  2282     0066  302A               	movlw	42
  2283     0067  1283               	bcf	3,5	;RP0=0, select bank0
  2284     0068  1303               	bcf	3,6	;RP1=0, select bank0
  2285     0069  062D               	xorwf	set_temp@key,w
  2286     006A  1903               	btfsc	3,2
  2287     006B  286D               	goto	u2621
  2288     006C  286E               	goto	u2620
  2289     006D                     u2621:
  2290     006D  2899               	goto	l2484
  2291     006E                     u2620:
  2292     006E                     l2474:
  2293     006E  3023               	movlw	35
  2294     006F  062D               	xorwf	set_temp@key,w
  2295     0070  1903               	btfsc	3,2
  2296     0071  2873               	goto	u2631
  2297     0072  2874               	goto	u2630
  2298     0073                     u2631:
  2299     0073  2899               	goto	l2484
  2300     0074                     u2630:
  2301     0074                     l2476:
  2302     0074  0A2D               	incf	set_temp@key,w
  2303     0075  1903               	btfsc	3,2
  2304     0076  2878               	goto	u2641
  2305     0077  2879               	goto	u2640
  2306     0078                     u2641:
  2307     0078  2899               	goto	l2484
  2308     0079                     u2640:
  2309     0079                     l2478:
  2310                           
  2311                           ;micro_oven.c: 167:     {;micro_oven.c: 168:         key_count++;
  2312     0079  3001               	movlw	1
  2313     007A  07B8               	addwf	set_temp@key_count,f
  2314     007B                     l2480:
  2315                           
  2316                           ;micro_oven.c: 169:         if(key_count <= 4)
  2317     007B  3005               	movlw	5
  2318     007C  0238               	subwf	set_temp@key_count,w
  2319     007D  1803               	skipnc
  2320     007E  2880               	goto	u2651
  2321     007F  2881               	goto	u2650
  2322     0080                     u2651:
  2323     0080  2950               	goto	l2516
  2324     0081                     u2650:
  2325     0081                     l2482:
  2326                           
  2327                           ;micro_oven.c: 170:         {;micro_oven.c: 171:             temp = temp * 10 + key;
  2328     0081  0835               	movf	_temp+1,w
  2329     0082  00F3               	movwf	___wmul@multiplier+1
  2330     0083  0834               	movf	_temp,w
  2331     0084  00F2               	movwf	___wmul@multiplier
  2332     0085  300A               	movlw	10
  2333     0086  00F4               	movwf	___wmul@multiplicand
  2334     0087  3000               	movlw	0
  2335     0088  00F5               	movwf	___wmul@multiplicand+1
  2336     0089  120A  158A  2699  120A  118A  	fcall	___wmul
  2337     008E  1283               	bcf	3,5	;RP0=0, select bank0
  2338     008F  1303               	bcf	3,6	;RP1=0, select bank0
  2339     0090  082D               	movf	set_temp@key,w
  2340     0091  0772               	addwf	?___wmul,w
  2341     0092  00B4               	movwf	_temp
  2342     0093  3000               	movlw	0
  2343     0094  1803               	skipnc
  2344     0095  3001               	movlw	1
  2345     0096  0773               	addwf	?___wmul+1,w
  2346     0097  00B5               	movwf	_temp+1
  2347     0098  2950               	goto	l2516
  2348     0099                     l2484:
  2349     0099  302A               	movlw	42
  2350     009A  062D               	xorwf	set_temp@key,w
  2351     009B  1D03               	btfss	3,2
  2352     009C  289E               	goto	u2661
  2353     009D  289F               	goto	u2660
  2354     009E                     u2661:
  2355     009E  28A3               	goto	l2488
  2356     009F                     u2660:
  2357     009F                     l2486:
  2358                           
  2359                           ;micro_oven.c: 179:     {;micro_oven.c: 180:         temp = 0;
  2360     009F  01B4               	clrf	_temp
  2361     00A0  01B5               	clrf	_temp+1
  2362                           
  2363                           ;micro_oven.c: 181:         key_count = 0;
  2364     00A1  01B8               	clrf	set_temp@key_count
  2365                           
  2366                           ;micro_oven.c: 182:     }
  2367     00A2  2950               	goto	l2516
  2368     00A3                     l2488:
  2369     00A3  3023               	movlw	35
  2370     00A4  062D               	xorwf	set_temp@key,w
  2371     00A5  1D03               	btfss	3,2
  2372     00A6  28A8               	goto	u2671
  2373     00A7  28A9               	goto	u2670
  2374     00A8                     u2671:
  2375     00A8  2950               	goto	l2516
  2376     00A9                     u2670:
  2377     00A9                     l2490:
  2378                           
  2379                           ;micro_oven.c: 186:     {;micro_oven.c: 187:         if(temp > 180)
  2380     00A9  3000               	movlw	0
  2381     00AA  0235               	subwf	_temp+1,w
  2382     00AB  30B5               	movlw	181
  2383     00AC  1903               	skipnz
  2384     00AD  0234               	subwf	_temp,w
  2385     00AE  1C03               	skipc
  2386     00AF  28B1               	goto	u2681
  2387     00B0  28B2               	goto	u2680
  2388     00B1                     u2681:
  2389     00B1  28B6               	goto	l2494
  2390     00B2                     u2680:
  2391     00B2                     l2492:
  2392                           
  2393                           ;micro_oven.c: 188:         {;micro_oven.c: 189:             temp = 180;
  2394     00B2  30B4               	movlw	180
  2395     00B3  00B4               	movwf	_temp
  2396     00B4  3000               	movlw	0
  2397     00B5  00B5               	movwf	_temp+1
  2398     00B6                     l2494:
  2399                           
  2400                           ;micro_oven.c: 191:         clear_screen();
  2401     00B6  120A  158A  25F3  120A  118A  	fcall	_clear_screen
  2402     00BB                     l2496:
  2403                           
  2404                           ;micro_oven.c: 192:         pre_heat = 60;
  2405     00BB  303C               	movlw	60
  2406     00BC  1283               	bcf	3,5	;RP0=0, select bank0
  2407     00BD  1303               	bcf	3,6	;RP1=0, select bank0
  2408     00BE  00BD               	movwf	_pre_heat
  2409     00BF                     l2498:
  2410                           
  2411                           ;micro_oven.c: 193:         TMR2ON = 1;
  2412     00BF  1512               	bsf	18,2	;volatile
  2413     00C0                     l2500:
  2414                           
  2415                           ;micro_oven.c: 195:         clcd_print("Pre-Heating", (0x80 + 3));
  2416     00C0  3085               	movlw	(low ((STR_14-__stringbase)| (0+32768)))& (0+255)
  2417     00C1  00F6               	movwf	clcd_print@str
  2418     00C2  3083               	movlw	131
  2419     00C3  00F7               	movwf	clcd_print@addr
  2420     00C4  120A  158A  264F  120A  118A  	fcall	_clcd_print
  2421     00C9                     l2502:
  2422                           
  2423                           ;micro_oven.c: 196:         clcd_print("Time Rem:", (0x90 + 0));
  2424     00C9  309C               	movlw	(low ((STR_15-__stringbase)| (0+32768)))& (0+255)
  2425     00CA  00F6               	movwf	clcd_print@str
  2426     00CB  3090               	movlw	144
  2427     00CC  00F7               	movwf	clcd_print@addr
  2428     00CD  120A  158A  264F  120A  118A  	fcall	_clcd_print
  2429     00D2                     l2504:
  2430                           
  2431                           ;micro_oven.c: 197:         clcd_putch('s', (0x90 + 12));
  2432     00D2  309C               	movlw	156
  2433     00D3  1283               	bcf	3,5	;RP0=0, select bank0
  2434     00D4  1303               	bcf	3,6	;RP1=0, select bank0
  2435     00D5  00A8               	movwf	clcd_putch@addr
  2436     00D6  3073               	movlw	115
  2437     00D7  120A  158A  2617  120A  118A  	fcall	_clcd_putch
  2438                           
  2439                           ;micro_oven.c: 199:         while(pre_heat)
  2440     00DC  293F               	goto	l2508
  2441     00DD                     l2506:
  2442                           
  2443                           ;micro_oven.c: 200:         {;micro_oven.c: 201:             clcd_putch( pre_heat / 100 
      +                          + '0', (0x90 + 9));
  2444     00DD  3099               	movlw	153
  2445     00DE  00A8               	movwf	clcd_putch@addr
  2446     00DF  3064               	movlw	100
  2447     00E0  00F2               	movwf	___awdiv@divisor
  2448     00E1  3000               	movlw	0
  2449     00E2  00F3               	movwf	___awdiv@divisor+1
  2450     00E3  083D               	movf	_pre_heat,w
  2451     00E4  00AB               	movwf	??_set_temp
  2452     00E5  01AC               	clrf	??_set_temp+1
  2453     00E6  082B               	movf	??_set_temp,w
  2454     00E7  00F4               	movwf	___awdiv@dividend
  2455     00E8  082C               	movf	??_set_temp+1,w
  2456     00E9  00F5               	movwf	___awdiv@dividend+1
  2457     00EA  120A  118A  2429  120A  118A  	fcall	___awdiv
  2458     00EF  0872               	movf	?___awdiv,w
  2459     00F0  3E30               	addlw	48
  2460     00F1  120A  158A  2617  120A  118A  	fcall	_clcd_putch
  2461                           
  2462                           ;micro_oven.c: 202:             clcd_putch( (pre_heat/10) % 10 + '0', (0x90 + 10));
  2463     00F6  309A               	movlw	154
  2464     00F7  1283               	bcf	3,5	;RP0=0, select bank0
  2465     00F8  1303               	bcf	3,6	;RP1=0, select bank0
  2466     00F9  00A8               	movwf	clcd_putch@addr
  2467     00FA  300A               	movlw	10
  2468     00FB  00A4               	movwf	___awmod@divisor
  2469     00FC  3000               	movlw	0
  2470     00FD  00A5               	movwf	___awmod@divisor+1
  2471     00FE  300A               	movlw	10
  2472     00FF  00F2               	movwf	___awdiv@divisor
  2473     0100  3000               	movlw	0
  2474     0101  00F3               	movwf	___awdiv@divisor+1
  2475     0102  083D               	movf	_pre_heat,w
  2476     0103  00AB               	movwf	??_set_temp
  2477     0104  01AC               	clrf	??_set_temp+1
  2478     0105  082B               	movf	??_set_temp,w
  2479     0106  00F4               	movwf	___awdiv@dividend
  2480     0107  082C               	movf	??_set_temp+1,w
  2481     0108  00F5               	movwf	___awdiv@dividend+1
  2482     0109  120A  118A  2429  120A  118A  	fcall	___awdiv
  2483     010E  0873               	movf	?___awdiv+1,w
  2484     010F  1283               	bcf	3,5	;RP0=0, select bank0
  2485     0110  1303               	bcf	3,6	;RP1=0, select bank0
  2486     0111  00A7               	movwf	___awmod@dividend+1
  2487     0112  0872               	movf	?___awdiv,w
  2488     0113  00A6               	movwf	___awmod@dividend
  2489     0114  120A  158A  27A7  120A  118A  	fcall	___awmod
  2490     0119  1283               	bcf	3,5	;RP0=0, select bank0
  2491     011A  1303               	bcf	3,6	;RP1=0, select bank0
  2492     011B  0824               	movf	?___awmod,w
  2493     011C  3E30               	addlw	48
  2494     011D  120A  158A  2617  120A  118A  	fcall	_clcd_putch
  2495                           
  2496                           ;micro_oven.c: 203:             clcd_putch((pre_heat % 10) + '0', (0x90 + 11));
  2497     0122  309B               	movlw	155
  2498     0123  1283               	bcf	3,5	;RP0=0, select bank0
  2499     0124  1303               	bcf	3,6	;RP1=0, select bank0
  2500     0125  00A8               	movwf	clcd_putch@addr
  2501     0126  300A               	movlw	10
  2502     0127  00A4               	movwf	___awmod@divisor
  2503     0128  3000               	movlw	0
  2504     0129  00A5               	movwf	___awmod@divisor+1
  2505     012A  083D               	movf	_pre_heat,w
  2506     012B  00AB               	movwf	??_set_temp
  2507     012C  01AC               	clrf	??_set_temp+1
  2508     012D  082B               	movf	??_set_temp,w
  2509     012E  00A6               	movwf	___awmod@dividend
  2510     012F  082C               	movf	??_set_temp+1,w
  2511     0130  00A7               	movwf	___awmod@dividend+1
  2512     0131  120A  158A  27A7  120A  118A  	fcall	___awmod
  2513     0136  1283               	bcf	3,5	;RP0=0, select bank0
  2514     0137  1303               	bcf	3,6	;RP1=0, select bank0
  2515     0138  0824               	movf	?___awmod,w
  2516     0139  3E30               	addlw	48
  2517     013A  120A  158A  2617  120A  118A  	fcall	_clcd_putch
  2518     013F                     l2508:
  2519                           
  2520                           ;micro_oven.c: 199:         while(pre_heat)
  2521     013F  1283               	bcf	3,5	;RP0=0, select bank0
  2522     0140  1303               	bcf	3,6	;RP1=0, select bank0
  2523     0141  083D               	movf	_pre_heat,w
  2524     0142  1D03               	btfss	3,2
  2525     0143  2945               	goto	u2691
  2526     0144  2946               	goto	u2690
  2527     0145                     u2691:
  2528     0145  28DD               	goto	l2506
  2529     0146                     u2690:
  2530     0146                     l275:
  2531                           
  2532                           ;micro_oven.c: 205:         TMR2ON = 0;
  2533     0146  1112               	bcf	18,2	;volatile
  2534     0147                     l2510:
  2535                           
  2536                           ;micro_oven.c: 206:         clear_screen();
  2537     0147  120A  158A  25F3  120A  118A  	fcall	_clear_screen
  2538     014C                     l2512:
  2539                           
  2540                           ;micro_oven.c: 207:         screen_flag = 0x30;
  2541     014C  3030               	movlw	48
  2542     014D  1283               	bcf	3,5	;RP0=0, select bank0
  2543     014E  1303               	bcf	3,6	;RP1=0, select bank0
  2544     014F  00C0               	movwf	_screen_flag
  2545     0150                     l2514:
  2546     0150                     l2516:
  2547                           
  2548                           ;micro_oven.c: 214:     if(display_blank)
  2549     0150  0836               	movf	set_temp@display_blank,w
  2550     0151  1903               	btfsc	3,2
  2551     0152  2954               	goto	u2701
  2552     0153  2955               	goto	u2700
  2553     0154                     u2701:
  2554     0154  2972               	goto	l2520
  2555     0155                     u2700:
  2556     0155                     l2518:
  2557                           
  2558                           ;micro_oven.c: 215:     {;micro_oven.c: 216:         clcd_putch(' ', (0xC0 + 7));
  2559     0155  30C7               	movlw	199
  2560     0156  00A8               	movwf	clcd_putch@addr
  2561     0157  3020               	movlw	32
  2562     0158  120A  158A  2617  120A  118A  	fcall	_clcd_putch
  2563                           
  2564                           ;micro_oven.c: 217:         clcd_putch(' ', (0xC0 + 8));
  2565     015D  30C8               	movlw	200
  2566     015E  1283               	bcf	3,5	;RP0=0, select bank0
  2567     015F  1303               	bcf	3,6	;RP1=0, select bank0
  2568     0160  00A8               	movwf	clcd_putch@addr
  2569     0161  3020               	movlw	32
  2570     0162  120A  158A  2617  120A  118A  	fcall	_clcd_putch
  2571                           
  2572                           ;micro_oven.c: 218:         clcd_putch(' ', (0xC0 + 9));
  2573     0167  30C9               	movlw	201
  2574     0168  1283               	bcf	3,5	;RP0=0, select bank0
  2575     0169  1303               	bcf	3,6	;RP1=0, select bank0
  2576     016A  00A8               	movwf	clcd_putch@addr
  2577     016B  3020               	movlw	32
  2578     016C  120A  158A  2617  120A  118A  	fcall	_clcd_putch
  2579                           
  2580                           ;micro_oven.c: 219:     }
  2581     0171  29CB               	goto	l278
  2582     0172                     l2520:
  2583                           
  2584                           ;micro_oven.c: 221:     {;micro_oven.c: 222:         clcd_putch((char)(temp / 100 + '0')
      +                          , (0xC0 + 7));
  2585     0172  30C7               	movlw	199
  2586     0173  00A8               	movwf	clcd_putch@addr
  2587     0174  3064               	movlw	100
  2588     0175  00F2               	movwf	___lwdiv@divisor
  2589     0176  3000               	movlw	0
  2590     0177  00F3               	movwf	___lwdiv@divisor+1
  2591     0178  0835               	movf	_temp+1,w
  2592     0179  00F5               	movwf	___lwdiv@dividend+1
  2593     017A  0834               	movf	_temp,w
  2594     017B  00F4               	movwf	___lwdiv@dividend
  2595     017C  120A  158A  2765  120A  118A  	fcall	___lwdiv
  2596     0181  0872               	movf	?___lwdiv,w
  2597     0182  3E30               	addlw	48
  2598     0183  120A  158A  2617  120A  118A  	fcall	_clcd_putch
  2599                           
  2600                           ;micro_oven.c: 223:         clcd_putch( (temp/10) % 10 + '0', (0xC0 + 8));
  2601     0188  30C8               	movlw	200
  2602     0189  1283               	bcf	3,5	;RP0=0, select bank0
  2603     018A  1303               	bcf	3,6	;RP1=0, select bank0
  2604     018B  00A8               	movwf	clcd_putch@addr
  2605     018C  300A               	movlw	10
  2606     018D  00A0               	movwf	___lwmod@divisor
  2607     018E  3000               	movlw	0
  2608     018F  00A1               	movwf	___lwmod@divisor+1
  2609     0190  300A               	movlw	10
  2610     0191  00F2               	movwf	___lwdiv@divisor
  2611     0192  3000               	movlw	0
  2612     0193  00F3               	movwf	___lwdiv@divisor+1
  2613     0194  0835               	movf	_temp+1,w
  2614     0195  00F5               	movwf	___lwdiv@dividend+1
  2615     0196  0834               	movf	_temp,w
  2616     0197  00F4               	movwf	___lwdiv@dividend
  2617     0198  120A  158A  2765  120A  118A  	fcall	___lwdiv
  2618     019D  0873               	movf	?___lwdiv+1,w
  2619     019E  1283               	bcf	3,5	;RP0=0, select bank0
  2620     019F  1303               	bcf	3,6	;RP1=0, select bank0
  2621     01A0  00A3               	movwf	___lwmod@dividend+1
  2622     01A1  0872               	movf	?___lwdiv,w
  2623     01A2  00A2               	movwf	___lwmod@dividend
  2624     01A3  120A  158A  272B  120A  118A  	fcall	___lwmod
  2625     01A8  1283               	bcf	3,5	;RP0=0, select bank0
  2626     01A9  1303               	bcf	3,6	;RP1=0, select bank0
  2627     01AA  0820               	movf	?___lwmod,w
  2628     01AB  3E30               	addlw	48
  2629     01AC  120A  158A  2617  120A  118A  	fcall	_clcd_putch
  2630                           
  2631                           ;micro_oven.c: 224:         clcd_putch((temp % 10) + '0', (0xC0 + 9));
  2632     01B1  30C9               	movlw	201
  2633     01B2  1283               	bcf	3,5	;RP0=0, select bank0
  2634     01B3  1303               	bcf	3,6	;RP1=0, select bank0
  2635     01B4  00A8               	movwf	clcd_putch@addr
  2636     01B5  300A               	movlw	10
  2637     01B6  00A0               	movwf	___lwmod@divisor
  2638     01B7  3000               	movlw	0
  2639     01B8  00A1               	movwf	___lwmod@divisor+1
  2640     01B9  0835               	movf	_temp+1,w
  2641     01BA  00A3               	movwf	___lwmod@dividend+1
  2642     01BB  0834               	movf	_temp,w
  2643     01BC  00A2               	movwf	___lwmod@dividend
  2644     01BD  120A  158A  272B  120A  118A  	fcall	___lwmod
  2645     01C2  1283               	bcf	3,5	;RP0=0, select bank0
  2646     01C3  1303               	bcf	3,6	;RP1=0, select bank0
  2647     01C4  0820               	movf	?___lwmod,w
  2648     01C5  3E30               	addlw	48
  2649     01C6  120A  158A  2617  120A  118A  	fcall	_clcd_putch
  2650     01CB                     l278:
  2651     01CB  0008               	return
  2652     01CC                     __end_of_set_temp:
  2653                           
  2654                           	psect	text4
  2655     0E99                     __ptext4:	
  2656 ;; *************** function ___wmul *****************
  2657 ;; Defined at:
  2658 ;;		line 15 in file "C:\Program Files\Microchip\xc8\v3.10\pic\sources\c99\common\Umul16.c"
  2659 ;; Parameters:    Size  Location     Type
  2660 ;;  multiplier      2    2[COMMON] unsigned int 
  2661 ;;  multiplicand    2    4[COMMON] unsigned int 
  2662 ;; Auto vars:     Size  Location     Type
  2663 ;;  product         2    6[COMMON] unsigned int 
  2664 ;; Return value:  Size  Location     Type
  2665 ;;                  2    2[COMMON] unsigned int 
  2666 ;; Registers used:
  2667 ;;		wreg, status,2, status,0
  2668 ;; Tracked objects:
  2669 ;;		On entry : 0/0
  2670 ;;		On exit  : 0/0
  2671 ;;		Unchanged: 0/0
  2672 ;; Data sizes:     COMMON   BANK0   BANK1   BANK3   BANK2
  2673 ;;      Params:         4       0       0       0       0
  2674 ;;      Locals:         2       0       0       0       0
  2675 ;;      Temps:          0       0       0       0       0
  2676 ;;      Totals:         6       0       0       0       0
  2677 ;;Total ram usage:        6 bytes
  2678 ;; Hardware stack levels used: 1
  2679 ;; Hardware stack levels required when called: 1
  2680 ;; This function calls:
  2681 ;;		Nothing
  2682 ;; This function is called by:
  2683 ;;		_set_temp
  2684 ;; This function uses a non-reentrant model
  2685 ;;
  2686                           
  2687     0E99                     ___wmul:	
  2688                           ;psect for function ___wmul
  2689                           
  2690     0E99                     l1718:	
  2691                           ;incstack = 0
  2692                           ; Regs used in ___wmul: [wreg+status,2+status,0]
  2693                           
  2694     0E99  01F6               	clrf	___wmul@product
  2695     0E9A  01F7               	clrf	___wmul@product+1
  2696     0E9B                     l1720:
  2697     0E9B  1C72               	btfss	___wmul@multiplier,0
  2698     0E9C  2E9E               	goto	u1251
  2699     0E9D  2E9F               	goto	u1250
  2700     0E9E                     u1251:
  2701     0E9E  2EA5               	goto	l392
  2702     0E9F                     u1250:
  2703     0E9F                     l1722:
  2704     0E9F  0874               	movf	___wmul@multiplicand,w
  2705     0EA0  07F6               	addwf	___wmul@product,f
  2706     0EA1  1803               	skipnc
  2707     0EA2  0AF7               	incf	___wmul@product+1,f
  2708     0EA3  0875               	movf	___wmul@multiplicand+1,w
  2709     0EA4  07F7               	addwf	___wmul@product+1,f
  2710     0EA5                     l392:
  2711     0EA5  3001               	movlw	1
  2712     0EA6                     u1265:
  2713     0EA6  1003               	clrc
  2714     0EA7  0DF4               	rlf	___wmul@multiplicand,f
  2715     0EA8  0DF5               	rlf	___wmul@multiplicand+1,f
  2716     0EA9  3EFF               	addlw	-1
  2717     0EAA  1D03               	skipz
  2718     0EAB  2EA6               	goto	u1265
  2719     0EAC                     l1724:
  2720     0EAC  3001               	movlw	1
  2721     0EAD                     u1275:
  2722     0EAD  1003               	clrc
  2723     0EAE  0CF3               	rrf	___wmul@multiplier+1,f
  2724     0EAF  0CF2               	rrf	___wmul@multiplier,f
  2725     0EB0  3EFF               	addlw	-1
  2726     0EB1  1D03               	skipz
  2727     0EB2  2EAD               	goto	u1275
  2728     0EB3                     l1726:
  2729     0EB3  0872               	movf	___wmul@multiplier,w
  2730     0EB4  0473               	iorwf	___wmul@multiplier+1,w
  2731     0EB5  1D03               	btfss	3,2
  2732     0EB6  2EB8               	goto	u1281
  2733     0EB7  2EB9               	goto	u1280
  2734     0EB8                     u1281:
  2735     0EB8  2E9B               	goto	l1720
  2736     0EB9                     u1280:
  2737     0EB9                     l1728:
  2738     0EB9  0877               	movf	___wmul@product+1,w
  2739     0EBA  00F3               	movwf	?___wmul+1
  2740     0EBB  0876               	movf	___wmul@product,w
  2741     0EBC  00F2               	movwf	?___wmul
  2742     0EBD                     l394:
  2743     0EBD  0008               	return
  2744     0EBE                     __end_of___wmul:
  2745                           
  2746                           	psect	text5
  2747     0F2B                     __ptext5:	
  2748 ;; *************** function ___lwmod *****************
  2749 ;; Defined at:
  2750 ;;		line 5 in file "C:\Program Files\Microchip\xc8\v3.10\pic\sources\c99\common\lwmod.c"
  2751 ;; Parameters:    Size  Location     Type
  2752 ;;  divisor         2    0[BANK0 ] unsigned int 
  2753 ;;  dividend        2    2[BANK0 ] unsigned int 
  2754 ;; Auto vars:     Size  Location     Type
  2755 ;;  counter         1    4[BANK0 ] unsigned char 
  2756 ;; Return value:  Size  Location     Type
  2757 ;;                  2    0[BANK0 ] unsigned int 
  2758 ;; Registers used:
  2759 ;;		wreg, status,2, status,0
  2760 ;; Tracked objects:
  2761 ;;		On entry : 0/0
  2762 ;;		On exit  : 0/0
  2763 ;;		Unchanged: 0/0
  2764 ;; Data sizes:     COMMON   BANK0   BANK1   BANK3   BANK2
  2765 ;;      Params:         0       4       0       0       0
  2766 ;;      Locals:         0       1       0       0       0
  2767 ;;      Temps:          0       0       0       0       0
  2768 ;;      Totals:         0       5       0       0       0
  2769 ;;Total ram usage:        5 bytes
  2770 ;; Hardware stack levels used: 1
  2771 ;; Hardware stack levels required when called: 1
  2772 ;; This function calls:
  2773 ;;		Nothing
  2774 ;; This function is called by:
  2775 ;;		_set_temp
  2776 ;; This function uses a non-reentrant model
  2777 ;;
  2778                           
  2779     0F2B                     ___lwmod:	
  2780                           ;psect for function ___lwmod
  2781                           
  2782     0F2B                     l2326:	
  2783                           ;incstack = 0
  2784                           ; Regs used in ___lwmod: [wreg+status,2+status,0]
  2785                           
  2786     0F2B  1283               	bcf	3,5	;RP0=0, select bank0
  2787     0F2C  1303               	bcf	3,6	;RP1=0, select bank0
  2788     0F2D  0820               	movf	___lwmod@divisor,w
  2789     0F2E  0421               	iorwf	___lwmod@divisor+1,w
  2790     0F2F  1903               	btfsc	3,2
  2791     0F30  2F32               	goto	u2351
  2792     0F31  2F33               	goto	u2350
  2793     0F32                     u2351:
  2794     0F32  2F60               	goto	l2344
  2795     0F33                     u2350:
  2796     0F33                     l2328:
  2797     0F33  3001               	movlw	1
  2798     0F34  00A4               	movwf	___lwmod@counter
  2799     0F35  2F3F               	goto	l2334
  2800     0F36                     l2330:
  2801     0F36  3001               	movlw	1
  2802     0F37                     u2365:
  2803     0F37  1003               	clrc
  2804     0F38  0DA0               	rlf	___lwmod@divisor,f
  2805     0F39  0DA1               	rlf	___lwmod@divisor+1,f
  2806     0F3A  3EFF               	addlw	-1
  2807     0F3B  1D03               	skipz
  2808     0F3C  2F37               	goto	u2365
  2809     0F3D                     l2332:
  2810     0F3D  3001               	movlw	1
  2811     0F3E  07A4               	addwf	___lwmod@counter,f
  2812     0F3F                     l2334:
  2813     0F3F  1FA1               	btfss	___lwmod@divisor+1,7
  2814     0F40  2F42               	goto	u2371
  2815     0F41  2F43               	goto	u2370
  2816     0F42                     u2371:
  2817     0F42  2F36               	goto	l2330
  2818     0F43                     u2370:
  2819     0F43                     l2336:
  2820     0F43  0821               	movf	___lwmod@divisor+1,w
  2821     0F44  0223               	subwf	___lwmod@dividend+1,w
  2822     0F45  1D03               	skipz
  2823     0F46  2F49               	goto	u2385
  2824     0F47  0820               	movf	___lwmod@divisor,w
  2825     0F48  0222               	subwf	___lwmod@dividend,w
  2826     0F49                     u2385:
  2827     0F49  1C03               	skipc
  2828     0F4A  2F4C               	goto	u2381
  2829     0F4B  2F4D               	goto	u2380
  2830     0F4C                     u2381:
  2831     0F4C  2F53               	goto	l2340
  2832     0F4D                     u2380:
  2833     0F4D                     l2338:
  2834     0F4D  0820               	movf	___lwmod@divisor,w
  2835     0F4E  02A2               	subwf	___lwmod@dividend,f
  2836     0F4F  0821               	movf	___lwmod@divisor+1,w
  2837     0F50  1C03               	skipc
  2838     0F51  03A3               	decf	___lwmod@dividend+1,f
  2839     0F52  02A3               	subwf	___lwmod@dividend+1,f
  2840     0F53                     l2340:
  2841     0F53  3001               	movlw	1
  2842     0F54                     u2395:
  2843     0F54  1003               	clrc
  2844     0F55  0CA1               	rrf	___lwmod@divisor+1,f
  2845     0F56  0CA0               	rrf	___lwmod@divisor,f
  2846     0F57  3EFF               	addlw	-1
  2847     0F58  1D03               	skipz
  2848     0F59  2F54               	goto	u2395
  2849     0F5A                     l2342:
  2850     0F5A  3001               	movlw	1
  2851     0F5B  02A4               	subwf	___lwmod@counter,f
  2852     0F5C  1D03               	btfss	3,2
  2853     0F5D  2F5F               	goto	u2401
  2854     0F5E  2F60               	goto	u2400
  2855     0F5F                     u2401:
  2856     0F5F  2F43               	goto	l2336
  2857     0F60                     u2400:
  2858     0F60                     l2344:
  2859     0F60  0823               	movf	___lwmod@dividend+1,w
  2860     0F61  00A1               	movwf	?___lwmod+1
  2861     0F62  0822               	movf	___lwmod@dividend,w
  2862     0F63  00A0               	movwf	?___lwmod
  2863     0F64                     l682:
  2864     0F64  0008               	return
  2865     0F65                     __end_of___lwmod:
  2866                           
  2867                           	psect	text6
  2868     0F65                     __ptext6:	
  2869 ;; *************** function ___lwdiv *****************
  2870 ;; Defined at:
  2871 ;;		line 5 in file "C:\Program Files\Microchip\xc8\v3.10\pic\sources\c99\common\lwdiv.c"
  2872 ;; Parameters:    Size  Location     Type
  2873 ;;  divisor         2    2[COMMON] unsigned int 
  2874 ;;  dividend        2    4[COMMON] unsigned int 
  2875 ;; Auto vars:     Size  Location     Type
  2876 ;;  quotient        2    6[COMMON] unsigned int 
  2877 ;;  counter         1    8[COMMON] unsigned char 
  2878 ;; Return value:  Size  Location     Type
  2879 ;;                  2    2[COMMON] unsigned int 
  2880 ;; Registers used:
  2881 ;;		wreg, status,2, status,0
  2882 ;; Tracked objects:
  2883 ;;		On entry : 0/0
  2884 ;;		On exit  : 0/0
  2885 ;;		Unchanged: 0/0
  2886 ;; Data sizes:     COMMON   BANK0   BANK1   BANK3   BANK2
  2887 ;;      Params:         4       0       0       0       0
  2888 ;;      Locals:         3       0       0       0       0
  2889 ;;      Temps:          0       0       0       0       0
  2890 ;;      Totals:         7       0       0       0       0
  2891 ;;Total ram usage:        7 bytes
  2892 ;; Hardware stack levels used: 1
  2893 ;; Hardware stack levels required when called: 1
  2894 ;; This function calls:
  2895 ;;		Nothing
  2896 ;; This function is called by:
  2897 ;;		_set_temp
  2898 ;; This function uses a non-reentrant model
  2899 ;;
  2900                           
  2901     0F65                     ___lwdiv:	
  2902                           ;psect for function ___lwdiv
  2903                           
  2904     0F65                     l1814:	
  2905                           ;incstack = 0
  2906                           ; Regs used in ___lwdiv: [wreg+status,2+status,0]
  2907                           
  2908     0F65  01F6               	clrf	___lwdiv@quotient
  2909     0F66  01F7               	clrf	___lwdiv@quotient+1
  2910     0F67                     l1816:
  2911     0F67  0872               	movf	___lwdiv@divisor,w
  2912     0F68  0473               	iorwf	___lwdiv@divisor+1,w
  2913     0F69  1903               	btfsc	3,2
  2914     0F6A  2F6C               	goto	u1481
  2915     0F6B  2F6D               	goto	u1480
  2916     0F6C                     u1481:
  2917     0F6C  2FA2               	goto	l1836
  2918     0F6D                     u1480:
  2919     0F6D                     l1818:
  2920     0F6D  3001               	movlw	1
  2921     0F6E  00F8               	movwf	___lwdiv@counter
  2922     0F6F  2F79               	goto	l1824
  2923     0F70                     l1820:
  2924     0F70  3001               	movlw	1
  2925     0F71                     u1495:
  2926     0F71  1003               	clrc
  2927     0F72  0DF2               	rlf	___lwdiv@divisor,f
  2928     0F73  0DF3               	rlf	___lwdiv@divisor+1,f
  2929     0F74  3EFF               	addlw	-1
  2930     0F75  1D03               	skipz
  2931     0F76  2F71               	goto	u1495
  2932     0F77                     l1822:
  2933     0F77  3001               	movlw	1
  2934     0F78  07F8               	addwf	___lwdiv@counter,f
  2935     0F79                     l1824:
  2936     0F79  1FF3               	btfss	___lwdiv@divisor+1,7
  2937     0F7A  2F7C               	goto	u1501
  2938     0F7B  2F7D               	goto	u1500
  2939     0F7C                     u1501:
  2940     0F7C  2F70               	goto	l1820
  2941     0F7D                     u1500:
  2942     0F7D                     l1826:
  2943     0F7D  3001               	movlw	1
  2944     0F7E                     u1515:
  2945     0F7E  1003               	clrc
  2946     0F7F  0DF6               	rlf	___lwdiv@quotient,f
  2947     0F80  0DF7               	rlf	___lwdiv@quotient+1,f
  2948     0F81  3EFF               	addlw	-1
  2949     0F82  1D03               	skipz
  2950     0F83  2F7E               	goto	u1515
  2951     0F84  0873               	movf	___lwdiv@divisor+1,w
  2952     0F85  0275               	subwf	___lwdiv@dividend+1,w
  2953     0F86  1D03               	skipz
  2954     0F87  2F8A               	goto	u1525
  2955     0F88  0872               	movf	___lwdiv@divisor,w
  2956     0F89  0274               	subwf	___lwdiv@dividend,w
  2957     0F8A                     u1525:
  2958     0F8A  1C03               	skipc
  2959     0F8B  2F8D               	goto	u1521
  2960     0F8C  2F8E               	goto	u1520
  2961     0F8D                     u1521:
  2962     0F8D  2F95               	goto	l1832
  2963     0F8E                     u1520:
  2964     0F8E                     l1828:
  2965     0F8E  0872               	movf	___lwdiv@divisor,w
  2966     0F8F  02F4               	subwf	___lwdiv@dividend,f
  2967     0F90  0873               	movf	___lwdiv@divisor+1,w
  2968     0F91  1C03               	skipc
  2969     0F92  03F5               	decf	___lwdiv@dividend+1,f
  2970     0F93  02F5               	subwf	___lwdiv@dividend+1,f
  2971     0F94                     l1830:
  2972     0F94  1476               	bsf	___lwdiv@quotient,0
  2973     0F95                     l1832:
  2974     0F95  3001               	movlw	1
  2975     0F96                     u1535:
  2976     0F96  1003               	clrc
  2977     0F97  0CF3               	rrf	___lwdiv@divisor+1,f
  2978     0F98  0CF2               	rrf	___lwdiv@divisor,f
  2979     0F99  3EFF               	addlw	-1
  2980     0F9A  1D03               	skipz
  2981     0F9B  2F96               	goto	u1535
  2982     0F9C                     l1834:
  2983     0F9C  3001               	movlw	1
  2984     0F9D  02F8               	subwf	___lwdiv@counter,f
  2985     0F9E  1D03               	btfss	3,2
  2986     0F9F  2FA1               	goto	u1541
  2987     0FA0  2FA2               	goto	u1540
  2988     0FA1                     u1541:
  2989     0FA1  2F7D               	goto	l1826
  2990     0FA2                     u1540:
  2991     0FA2                     l1836:
  2992     0FA2  0877               	movf	___lwdiv@quotient+1,w
  2993     0FA3  00F3               	movwf	?___lwdiv+1
  2994     0FA4  0876               	movf	___lwdiv@quotient,w
  2995     0FA5  00F2               	movwf	?___lwdiv
  2996     0FA6                     l672:
  2997     0FA6  0008               	return
  2998     0FA7                     __end_of___lwdiv:
  2999                           
  3000                           	psect	text7
  3001     0E2C                     __ptext7:	
  3002 ;; *************** function _read_matrix_keypad *****************
  3003 ;; Defined at:
  3004 ;;		line 114 in file "matrix_keypad.c"
  3005 ;; Parameters:    Size  Location     Type
  3006 ;;  mode            1    wreg     unsigned char 
  3007 ;; Auto vars:     Size  Location     Type
  3008 ;;  mode            1    4[COMMON] unsigned char 
  3009 ;;  key             1    5[COMMON] unsigned char 
  3010 ;; Return value:  Size  Location     Type
  3011 ;;                  1    wreg      unsigned char 
  3012 ;; Registers used:
  3013 ;;		wreg, status,2, status,0, pclath, btemp1, cstack
  3014 ;; Tracked objects:
  3015 ;;		On entry : 0/0
  3016 ;;		On exit  : 0/0
  3017 ;;		Unchanged: 0/0
  3018 ;; Data sizes:     COMMON   BANK0   BANK1   BANK3   BANK2
  3019 ;;      Params:         0       0       0       0       0
  3020 ;;      Locals:         2       0       0       0       0
  3021 ;;      Temps:          0       0       0       0       0
  3022 ;;      Totals:         2       0       0       0       0
  3023 ;;Total ram usage:        2 bytes
  3024 ;; Hardware stack levels used: 1
  3025 ;; Hardware stack levels required when called: 2
  3026 ;; This function calls:
  3027 ;;		_scan_keypad
  3028 ;; This function is called by:
  3029 ;;		_main
  3030 ;; This function uses a non-reentrant model
  3031 ;;
  3032                           
  3033     0E2C                     _read_matrix_keypad:	
  3034                           ;psect for function _read_matrix_keypad
  3035                           
  3036                           
  3037                           ;incstack = 0
  3038                           ; Regs used in _read_matrix_keypad: [wreg+status,2+status,0+pclath+btemp1+cstack]
  3039                           ;read_matrix_keypad@mode stored from wreg
  3040     0E2C  00F4               	movwf	read_matrix_keypad@mode
  3041     0E2D                     l1872:
  3042                           
  3043                           ;matrix_keypad.c: 114: unsigned char read_matrix_keypad(unsigned char mode);matrix_keypa
      +                          d.c: 115: {;matrix_keypad.c: 116:     static unsigned char once = 1;;matrix_keypad.c: 11
      +                          7:     unsigned char key;;matrix_keypad.c: 119:     key = scan_keypad();
  3044     0E2D  120A  118A  26C6  120A  158A  	fcall	_scan_keypad
  3045     0E32  00F5               	movwf	read_matrix_keypad@key
  3046     0E33                     l1874:
  3047                           
  3048                           ;matrix_keypad.c: 121:     if (mode == 0)
  3049     0E33  0874               	movf	read_matrix_keypad@mode,w
  3050     0E34  1D03               	btfss	3,2
  3051     0E35  2E37               	goto	u1611
  3052     0E36  2E38               	goto	u1610
  3053     0E37                     u1611:
  3054     0E37  2E3A               	goto	l1882
  3055     0E38                     u1610:
  3056     0E38                     l1876:
  3057                           
  3058                           ;matrix_keypad.c: 122:     {;matrix_keypad.c: 123:         return key;
  3059     0E38  0875               	movf	read_matrix_keypad@key,w
  3060     0E39  2E4E               	goto	l143
  3061     0E3A                     l1882:
  3062                           
  3063                           ;matrix_keypad.c: 126:     {;matrix_keypad.c: 127:         if ((key != 0xFF) && once)
  3064     0E3A  0A75               	incf	read_matrix_keypad@key,w
  3065     0E3B  1903               	btfsc	3,2
  3066     0E3C  2E3E               	goto	u1621
  3067     0E3D  2E3F               	goto	u1620
  3068     0E3E                     u1621:
  3069     0E3E  2E46               	goto	l1894
  3070     0E3F                     u1620:
  3071     0E3F                     l1884:
  3072     0E3F  087B               	movf	read_matrix_keypad@once,w
  3073     0E40  1903               	btfsc	3,2
  3074     0E41  2E43               	goto	u1631
  3075     0E42  2E44               	goto	u1630
  3076     0E43                     u1631:
  3077     0E43  2E46               	goto	l1894
  3078     0E44                     u1630:
  3079     0E44                     l1886:
  3080                           
  3081                           ;matrix_keypad.c: 128:         {;matrix_keypad.c: 129:             once = 0;
  3082     0E44  01FB               	clrf	read_matrix_keypad@once
  3083     0E45  2E38               	goto	l1876
  3084     0E46                     l1894:
  3085     0E46  0A75               	incf	read_matrix_keypad@key,w
  3086     0E47  1D03               	btfss	3,2
  3087     0E48  2E4A               	goto	u1641
  3088     0E49  2E4B               	goto	u1640
  3089     0E4A                     u1641:
  3090     0E4A  2E4D               	goto	l1898
  3091     0E4B                     u1640:
  3092     0E4B                     l1896:
  3093                           
  3094                           ;matrix_keypad.c: 134:         {;matrix_keypad.c: 135:             once = 1;
  3095     0E4B  3001               	movlw	1
  3096     0E4C  00FB               	movwf	read_matrix_keypad@once
  3097     0E4D                     l1898:
  3098                           
  3099                           ;matrix_keypad.c: 139:     return 0xFF;
  3100     0E4D  30FF               	movlw	255
  3101     0E4E                     l143:
  3102     0E4E  0008               	return
  3103     0E4F                     __end_of_read_matrix_keypad:
  3104                           
  3105                           	psect	text8
  3106     06C6                     __ptext8:	
  3107 ;; *************** function _scan_keypad *****************
  3108 ;; Defined at:
  3109 ;;		line 24 in file "matrix_keypad.c"
  3110 ;; Parameters:    Size  Location     Type
  3111 ;;		None
  3112 ;; Auto vars:     Size  Location     Type
  3113 ;;  i               2    2[COMMON] int 
  3114 ;; Return value:  Size  Location     Type
  3115 ;;                  1    wreg      unsigned char 
  3116 ;; Registers used:
  3117 ;;		wreg, status,2, status,0, btemp1
  3118 ;; Tracked objects:
  3119 ;;		On entry : 0/0
  3120 ;;		On exit  : 0/0
  3121 ;;		Unchanged: 0/0
  3122 ;; Data sizes:     COMMON   BANK0   BANK1   BANK3   BANK2
  3123 ;;      Params:         0       0       0       0       0
  3124 ;;      Locals:         2       0       0       0       0
  3125 ;;      Temps:          0       0       0       0       0
  3126 ;;      Totals:         2       0       0       0       0
  3127 ;;Total ram usage:        2 bytes
  3128 ;; Hardware stack levels used: 1
  3129 ;; Hardware stack levels required when called: 1
  3130 ;; This function calls:
  3131 ;;		Nothing
  3132 ;; This function is called by:
  3133 ;;		_read_matrix_keypad
  3134 ;; This function uses a non-reentrant model
  3135 ;;
  3136                           
  3137     06C6                     _scan_keypad:	
  3138                           ;psect for function _scan_keypad
  3139                           
  3140     06C6                     l1612:	
  3141                           ;incstack = 0
  3142                           ; Regs used in _scan_keypad: [wreg+status,2+status,0+btemp1]
  3143                           
  3144                           
  3145                           ;matrix_keypad.c: 26:     int i;;matrix_keypad.c: 28:     RD3 = 0;
  3146     06C6  1283               	bcf	3,5	;RP0=0, select bank0
  3147     06C7  1303               	bcf	3,6	;RP1=0, select bank0
  3148     06C8  1188               	bcf	8,3	;volatile
  3149                           
  3150                           ;matrix_keypad.c: 29:     RD2 = 1;
  3151     06C9  1508               	bsf	8,2	;volatile
  3152                           
  3153                           ;matrix_keypad.c: 30:     RD1 = 1;
  3154     06CA  1488               	bsf	8,1	;volatile
  3155                           
  3156                           ;matrix_keypad.c: 31:     RD0 = 1;
  3157     06CB  1408               	bsf	8,0	;volatile
  3158     06CC                     l1614:
  3159                           
  3160                           ;matrix_keypad.c: 33:     for (i = 100; i--; );
  3161     06CC  3064               	movlw	100
  3162     06CD  00F2               	movwf	scan_keypad@i
  3163     06CE  3000               	movlw	0
  3164     06CF  00F3               	movwf	scan_keypad@i+1
  3165     06D0                     l1616:
  3166     06D0  30FF               	movlw	255
  3167     06D1  07F2               	addwf	scan_keypad@i,f
  3168     06D2  1803               	skipnc
  3169     06D3  0AF3               	incf	scan_keypad@i+1,f
  3170     06D4  30FF               	movlw	255
  3171     06D5  07F3               	addwf	scan_keypad@i+1,f
  3172     06D6  0A72               	incf	scan_keypad@i,w
  3173     06D7  1D03               	skipz
  3174     06D8  2EDD               	goto	u1091
  3175     06D9  0A73               	incf	scan_keypad@i+1,w
  3176     06DA  1D03               	btfss	3,2
  3177     06DB  2EDD               	goto	u1091
  3178     06DC  2EDE               	goto	u1090
  3179     06DD                     u1091:
  3180     06DD  2ED0               	goto	l1616
  3181     06DE                     u1090:
  3182     06DE                     l110:
  3183                           
  3184                           ;matrix_keypad.c: 35:     if (RB0 == 0)
  3185     06DE  1283               	bcf	3,5	;RP0=0, select bank0
  3186     06DF  1303               	bcf	3,6	;RP1=0, select bank0
  3187     06E0  1806               	btfsc	6,0	;volatile
  3188     06E1  2EE3               	goto	u1101
  3189     06E2  2EE4               	goto	u1100
  3190     06E3                     u1101:
  3191     06E3  2EE6               	goto	l111
  3192     06E4                     u1100:
  3193     06E4                     l1618:
  3194                           
  3195                           ;matrix_keypad.c: 36:     {;matrix_keypad.c: 37:         return 1;
  3196     06E4  3001               	movlw	1
  3197     06E5  2F80               	goto	l112
  3198     06E6                     l111:	
  3199                           ;matrix_keypad.c: 39:     else if (RB1 == 0)
  3200                           
  3201     06E6  1886               	btfsc	6,1	;volatile
  3202     06E7  2EE9               	goto	u1111
  3203     06E8  2EEA               	goto	u1110
  3204     06E9                     u1111:
  3205     06E9  2EEC               	goto	l114
  3206     06EA                     u1110:
  3207     06EA                     l1624:
  3208                           
  3209                           ;matrix_keypad.c: 40:     {;matrix_keypad.c: 41:         return 2;
  3210     06EA  3002               	movlw	2
  3211     06EB  2F80               	goto	l112
  3212     06EC                     l114:	
  3213                           ;matrix_keypad.c: 43:     else if (RB2 == 0)
  3214                           
  3215     06EC  1906               	btfsc	6,2	;volatile
  3216     06ED  2EEF               	goto	u1121
  3217     06EE  2EF0               	goto	u1120
  3218     06EF                     u1121:
  3219     06EF  2EF2               	goto	l113
  3220     06F0                     u1120:
  3221     06F0                     l1630:
  3222                           
  3223                           ;matrix_keypad.c: 44:     {;matrix_keypad.c: 45:         return 3;
  3224     06F0  3003               	movlw	3
  3225     06F1  2F80               	goto	l112
  3226     06F2                     l113:
  3227                           
  3228                           ;matrix_keypad.c: 48:     RD3 = 1;
  3229     06F2  1588               	bsf	8,3	;volatile
  3230                           
  3231                           ;matrix_keypad.c: 49:     RD2 = 0;
  3232     06F3  1108               	bcf	8,2	;volatile
  3233                           
  3234                           ;matrix_keypad.c: 50:     RD1 = 1;
  3235     06F4  1488               	bsf	8,1	;volatile
  3236                           
  3237                           ;matrix_keypad.c: 51:     RD0 = 1;
  3238     06F5  1408               	bsf	8,0	;volatile
  3239     06F6                     l1634:
  3240                           
  3241                           ;matrix_keypad.c: 53:    for (i = 100; i > 0; i--)
  3242     06F6  3064               	movlw	100
  3243     06F7  00F2               	movwf	scan_keypad@i
  3244     06F8  3000               	movlw	0
  3245     06F9  00F3               	movwf	scan_keypad@i+1
  3246     06FA                     l1640:
  3247                           
  3248                           ;matrix_keypad.c: 54:    {;matrix_keypad.c: 56:    }
  3249     06FA  30FF               	movlw	255
  3250     06FB  07F2               	addwf	scan_keypad@i,f
  3251     06FC  1803               	skipnc
  3252     06FD  0AF3               	incf	scan_keypad@i+1,f
  3253     06FE  30FF               	movlw	255
  3254     06FF  07F3               	addwf	scan_keypad@i+1,f
  3255     0700                     l1642:
  3256     0700  0873               	movf	scan_keypad@i+1,w
  3257     0701  3A80               	xorlw	128
  3258     0702  00FF               	movwf	btemp1
  3259     0703  3080               	movlw	128
  3260     0704  027F               	subwf	btemp1,w
  3261     0705  1D03               	skipz
  3262     0706  2F09               	goto	u1135
  3263     0707  3001               	movlw	1
  3264     0708  0272               	subwf	scan_keypad@i,w
  3265     0709                     u1135:
  3266     0709  1803               	skipnc
  3267     070A  2F0C               	goto	u1131
  3268     070B  2F0D               	goto	u1130
  3269     070C                     u1131:
  3270     070C  2EFA               	goto	l1640
  3271     070D                     u1130:
  3272     070D                     l118:
  3273                           
  3274                           ;matrix_keypad.c: 58:     if (RB0 == 0)
  3275     070D  1283               	bcf	3,5	;RP0=0, select bank0
  3276     070E  1303               	bcf	3,6	;RP1=0, select bank0
  3277     070F  1806               	btfsc	6,0	;volatile
  3278     0710  2F12               	goto	u1141
  3279     0711  2F13               	goto	u1140
  3280     0712                     u1141:
  3281     0712  2F15               	goto	l119
  3282     0713                     u1140:
  3283     0713                     l1644:
  3284                           
  3285                           ;matrix_keypad.c: 59:     {;matrix_keypad.c: 60:         return 4;
  3286     0713  3004               	movlw	4
  3287     0714  2F80               	goto	l112
  3288     0715                     l119:	
  3289                           ;matrix_keypad.c: 62:     else if (RB1 == 0)
  3290                           
  3291     0715  1886               	btfsc	6,1	;volatile
  3292     0716  2F18               	goto	u1151
  3293     0717  2F19               	goto	u1150
  3294     0718                     u1151:
  3295     0718  2F1B               	goto	l121
  3296     0719                     u1150:
  3297     0719                     l1650:
  3298                           
  3299                           ;matrix_keypad.c: 63:     {;matrix_keypad.c: 64:         return 5;
  3300     0719  3005               	movlw	5
  3301     071A  2F80               	goto	l112
  3302     071B                     l121:	
  3303                           ;matrix_keypad.c: 66:     else if (RB2 == 0)
  3304                           
  3305     071B  1906               	btfsc	6,2	;volatile
  3306     071C  2F1E               	goto	u1161
  3307     071D  2F1F               	goto	u1160
  3308     071E                     u1161:
  3309     071E  2F21               	goto	l120
  3310     071F                     u1160:
  3311     071F                     l1656:
  3312                           
  3313                           ;matrix_keypad.c: 67:     {;matrix_keypad.c: 68:         return 6;
  3314     071F  3006               	movlw	6
  3315     0720  2F80               	goto	l112
  3316     0721                     l120:
  3317                           
  3318                           ;matrix_keypad.c: 71:     RD3 = 1;
  3319     0721  1588               	bsf	8,3	;volatile
  3320                           
  3321                           ;matrix_keypad.c: 72:     RD2 = 1;
  3322     0722  1508               	bsf	8,2	;volatile
  3323                           
  3324                           ;matrix_keypad.c: 73:     RD1 = 0;
  3325     0723  1088               	bcf	8,1	;volatile
  3326                           
  3327                           ;matrix_keypad.c: 74:     RD0 = 1;
  3328     0724  1408               	bsf	8,0	;volatile
  3329     0725                     l1660:
  3330                           
  3331                           ;matrix_keypad.c: 76:     for (i = 100; i > 0; i--);
  3332     0725  3064               	movlw	100
  3333     0726  00F2               	movwf	scan_keypad@i
  3334     0727  3000               	movlw	0
  3335     0728  00F3               	movwf	scan_keypad@i+1
  3336     0729                     l1666:
  3337     0729  30FF               	movlw	255
  3338     072A  07F2               	addwf	scan_keypad@i,f
  3339     072B  1803               	skipnc
  3340     072C  0AF3               	incf	scan_keypad@i+1,f
  3341     072D  30FF               	movlw	255
  3342     072E  07F3               	addwf	scan_keypad@i+1,f
  3343     072F                     l1668:
  3344     072F  0873               	movf	scan_keypad@i+1,w
  3345     0730  3A80               	xorlw	128
  3346     0731  00FF               	movwf	btemp1
  3347     0732  3080               	movlw	128
  3348     0733  027F               	subwf	btemp1,w
  3349     0734  1D03               	skipz
  3350     0735  2F38               	goto	u1175
  3351     0736  3001               	movlw	1
  3352     0737  0272               	subwf	scan_keypad@i,w
  3353     0738                     u1175:
  3354     0738  1803               	skipnc
  3355     0739  2F3B               	goto	u1171
  3356     073A  2F3C               	goto	u1170
  3357     073B                     u1171:
  3358     073B  2F29               	goto	l1666
  3359     073C                     u1170:
  3360     073C                     l125:
  3361                           
  3362                           ;matrix_keypad.c: 78:     if (RB0 == 0)
  3363     073C  1283               	bcf	3,5	;RP0=0, select bank0
  3364     073D  1303               	bcf	3,6	;RP1=0, select bank0
  3365     073E  1806               	btfsc	6,0	;volatile
  3366     073F  2F41               	goto	u1181
  3367     0740  2F42               	goto	u1180
  3368     0741                     u1181:
  3369     0741  2F44               	goto	l126
  3370     0742                     u1180:
  3371     0742                     l1670:
  3372                           
  3373                           ;matrix_keypad.c: 79:     {;matrix_keypad.c: 80:         return 7;
  3374     0742  3007               	movlw	7
  3375     0743  2F80               	goto	l112
  3376     0744                     l126:	
  3377                           ;matrix_keypad.c: 82:     else if (RB1 == 0)
  3378                           
  3379     0744  1886               	btfsc	6,1	;volatile
  3380     0745  2F47               	goto	u1191
  3381     0746  2F48               	goto	u1190
  3382     0747                     u1191:
  3383     0747  2F4A               	goto	l128
  3384     0748                     u1190:
  3385     0748                     l1676:
  3386                           
  3387                           ;matrix_keypad.c: 83:     {;matrix_keypad.c: 84:         return 8;
  3388     0748  3008               	movlw	8
  3389     0749  2F80               	goto	l112
  3390     074A                     l128:	
  3391                           ;matrix_keypad.c: 86:     else if (RB2 == 0)
  3392                           
  3393     074A  1906               	btfsc	6,2	;volatile
  3394     074B  2F4D               	goto	u1201
  3395     074C  2F4E               	goto	u1200
  3396     074D                     u1201:
  3397     074D  2F50               	goto	l127
  3398     074E                     u1200:
  3399     074E                     l1682:
  3400                           
  3401                           ;matrix_keypad.c: 87:     {;matrix_keypad.c: 88:         return 9;
  3402     074E  3009               	movlw	9
  3403     074F  2F80               	goto	l112
  3404     0750                     l127:
  3405                           
  3406                           ;matrix_keypad.c: 91:     RD3 = 1;
  3407     0750  1588               	bsf	8,3	;volatile
  3408                           
  3409                           ;matrix_keypad.c: 92:     RD2 = 1;
  3410     0751  1508               	bsf	8,2	;volatile
  3411                           
  3412                           ;matrix_keypad.c: 93:     RD1 = 1;
  3413     0752  1488               	bsf	8,1	;volatile
  3414                           
  3415                           ;matrix_keypad.c: 94:     RD0 = 0;
  3416     0753  1008               	bcf	8,0	;volatile
  3417     0754                     l1686:
  3418                           
  3419                           ;matrix_keypad.c: 96:     for (i = 100; i > 0; i--);
  3420     0754  3064               	movlw	100
  3421     0755  00F2               	movwf	scan_keypad@i
  3422     0756  3000               	movlw	0
  3423     0757  00F3               	movwf	scan_keypad@i+1
  3424     0758                     l1692:
  3425     0758  30FF               	movlw	255
  3426     0759  07F2               	addwf	scan_keypad@i,f
  3427     075A  1803               	skipnc
  3428     075B  0AF3               	incf	scan_keypad@i+1,f
  3429     075C  30FF               	movlw	255
  3430     075D  07F3               	addwf	scan_keypad@i+1,f
  3431     075E                     l1694:
  3432     075E  0873               	movf	scan_keypad@i+1,w
  3433     075F  3A80               	xorlw	128
  3434     0760  00FF               	movwf	btemp1
  3435     0761  3080               	movlw	128
  3436     0762  027F               	subwf	btemp1,w
  3437     0763  1D03               	skipz
  3438     0764  2F67               	goto	u1215
  3439     0765  3001               	movlw	1
  3440     0766  0272               	subwf	scan_keypad@i,w
  3441     0767                     u1215:
  3442     0767  1803               	skipnc
  3443     0768  2F6A               	goto	u1211
  3444     0769  2F6B               	goto	u1210
  3445     076A                     u1211:
  3446     076A  2F58               	goto	l1692
  3447     076B                     u1210:
  3448     076B                     l132:
  3449                           
  3450                           ;matrix_keypad.c: 98:     if (RB0 == 0)
  3451     076B  1283               	bcf	3,5	;RP0=0, select bank0
  3452     076C  1303               	bcf	3,6	;RP1=0, select bank0
  3453     076D  1806               	btfsc	6,0	;volatile
  3454     076E  2F70               	goto	u1221
  3455     076F  2F71               	goto	u1220
  3456     0770                     u1221:
  3457     0770  2F73               	goto	l133
  3458     0771                     u1220:
  3459     0771                     l1696:
  3460                           
  3461                           ;matrix_keypad.c: 99:     {;matrix_keypad.c: 100:         return '*';
  3462     0771  302A               	movlw	42
  3463     0772  2F80               	goto	l112
  3464     0773                     l133:	
  3465                           ;matrix_keypad.c: 102:     else if (RB1 == 0)
  3466                           
  3467     0773  1886               	btfsc	6,1	;volatile
  3468     0774  2F76               	goto	u1231
  3469     0775  2F77               	goto	u1230
  3470     0776                     u1231:
  3471     0776  2F79               	goto	l135
  3472     0777                     u1230:
  3473     0777                     l1702:
  3474                           
  3475                           ;matrix_keypad.c: 103:     {;matrix_keypad.c: 104:         return 0;
  3476     0777  3000               	movlw	0
  3477     0778  2F80               	goto	l112
  3478     0779                     l135:	
  3479                           ;matrix_keypad.c: 106:     else if (RB2 == 0)
  3480                           
  3481     0779  1906               	btfsc	6,2	;volatile
  3482     077A  2F7C               	goto	u1241
  3483     077B  2F7D               	goto	u1240
  3484     077C                     u1241:
  3485     077C  2F7F               	goto	l1712
  3486     077D                     u1240:
  3487     077D                     l1708:
  3488                           
  3489                           ;matrix_keypad.c: 107:     {;matrix_keypad.c: 108:         return '#';
  3490     077D  3023               	movlw	35
  3491     077E  2F80               	goto	l112
  3492     077F                     l1712:
  3493                           
  3494                           ;matrix_keypad.c: 111:     return 0xFF;
  3495     077F  30FF               	movlw	255
  3496     0780                     l112:
  3497     0780  0008               	return
  3498     0781                     __end_of_scan_keypad:
  3499                           
  3500                           	psect	text9
  3501     07EB                     __ptext9:	
  3502 ;; *************** function _init_config *****************
  3503 ;; Defined at:
  3504 ;;		line 14 in file "main.c"
  3505 ;; Parameters:    Size  Location     Type
  3506 ;;		None
  3507 ;; Auto vars:     Size  Location     Type
  3508 ;;		None
  3509 ;; Return value:  Size  Location     Type
  3510 ;;                  1    wreg      void 
  3511 ;; Registers used:
  3512 ;;		wreg, status,2, status,0, pclath, cstack
  3513 ;; Tracked objects:
  3514 ;;		On entry : 0/0
  3515 ;;		On exit  : 0/0
  3516 ;;		Unchanged: 0/0
  3517 ;; Data sizes:     COMMON   BANK0   BANK1   BANK3   BANK2
  3518 ;;      Params:         0       0       0       0       0
  3519 ;;      Locals:         0       0       0       0       0
  3520 ;;      Temps:          0       0       0       0       0
  3521 ;;      Totals:         0       0       0       0       0
  3522 ;;Total ram usage:        0 bytes
  3523 ;; Hardware stack levels used: 1
  3524 ;; Hardware stack levels required when called: 4
  3525 ;; This function calls:
  3526 ;;		_init_clcd
  3527 ;;		_init_matrix_keypad
  3528 ;;		_init_timer2
  3529 ;; This function is called by:
  3530 ;;		_main
  3531 ;; This function uses a non-reentrant model
  3532 ;;
  3533                           
  3534     07EB                     _init_config:	
  3535                           ;psect for function _init_config
  3536                           
  3537     07EB                     l1862:	
  3538                           ;incstack = 0
  3539                           ; Regs used in _init_config: [wreg+status,2+status,0+pclath+cstack]
  3540                           
  3541                           
  3542                           ;main.c: 15:     {
  3543     07EB  120A  158A  25D8  120A  118A  	fcall	_init_clcd
  3544                           
  3545                           ;main.c: 16:         key = read_matrix_keypad(1);
  3546     07F0  120A  158A  25E3  120A  118A  	fcall	_init_matrix_keypad
  3547     07F5                     l1864:
  3548                           
  3549                           ;main.c: 17:         if(screen_flag == 0x20)
  3550     07F5  120A  118A  24F1  120A  118A  	fcall	_init_timer2
  3551     07FA                     l1866:
  3552                           
  3553                           ;main.c: 18:         {
  3554     07FA  1683               	bsf	3,5	;RP0=1, select bank1
  3555     07FB  1303               	bcf	3,6	;RP1=0, select bank1
  3556     07FC  1107               	bcf	7,2	;volatile
  3557     07FD                     l1868:
  3558                           
  3559                           ;main.c: 19:             if (key == 1)
  3560     07FD  170B               	bsf	11,6	;volatile
  3561     07FE                     l1870:
  3562                           
  3563                           ;main.c: 20:             {
  3564     07FE  178B               	bsf	11,7	;volatile
  3565     07FF                     l45:
  3566     07FF  0008               	return
  3567     0800                     __end_of_init_config:
  3568                           
  3569                           	psect	text10
  3570     04F1                     __ptext10:	
  3571 ;; *************** function _init_timer2 *****************
  3572 ;; Defined at:
  3573 ;;		line 4 in file "timers.c"
  3574 ;; Parameters:    Size  Location     Type
  3575 ;;		None
  3576 ;; Auto vars:     Size  Location     Type
  3577 ;;		None
  3578 ;; Return value:  Size  Location     Type
  3579 ;;                  1    wreg      void 
  3580 ;; Registers used:
  3581 ;;		None
  3582 ;; Tracked objects:
  3583 ;;		On entry : 0/0
  3584 ;;		On exit  : 0/0
  3585 ;;		Unchanged: 0/0
  3586 ;; Data sizes:     COMMON   BANK0   BANK1   BANK3   BANK2
  3587 ;;      Params:         0       0       0       0       0
  3588 ;;      Locals:         0       0       0       0       0
  3589 ;;      Temps:          0       0       0       0       0
  3590 ;;      Totals:         0       0       0       0       0
  3591 ;;Total ram usage:        0 bytes
  3592 ;; Hardware stack levels used: 1
  3593 ;; Hardware stack levels required when called: 1
  3594 ;; This function calls:
  3595 ;;		Nothing
  3596 ;; This function is called by:
  3597 ;;		_init_config
  3598 ;; This function uses a non-reentrant model
  3599 ;;
  3600                           
  3601     04F1                     _init_timer2:	
  3602                           ;psect for function _init_timer2
  3603                           
  3604     04F1                     l1598:	
  3605                           ;incstack = 0
  3606                           ; Regs used in _init_timer2: []
  3607                           
  3608                           
  3609                           ;timers.c: 7:     T2CKPS0 = 1;
  3610     04F1  1283               	bcf	3,5	;RP0=0, select bank0
  3611     04F2  1303               	bcf	3,6	;RP1=0, select bank0
  3612     04F3  1412               	bsf	18,0	;volatile
  3613                           
  3614                           ;timers.c: 8:     T2CKPS1 = 1;
  3615     04F4  1492               	bsf	18,1	;volatile
  3616                           
  3617                           ;timers.c: 13:     PR2 = 250;
  3618     04F5  30FA               	movlw	250
  3619     04F6  1683               	bsf	3,5	;RP0=1, select bank1
  3620     04F7  1303               	bcf	3,6	;RP1=0, select bank1
  3621     04F8  0092               	movwf	18	;volatile
  3622                           
  3623                           ;timers.c: 16:     TMR2IE = 1;
  3624     04F9  148C               	bsf	12,1	;volatile
  3625                           
  3626                           ;timers.c: 19:     TMR2ON = 0;
  3627     04FA  1283               	bcf	3,5	;RP0=0, select bank0
  3628     04FB  1303               	bcf	3,6	;RP1=0, select bank0
  3629     04FC  1112               	bcf	18,2	;volatile
  3630     04FD                     l195:
  3631     04FD  0008               	return
  3632     04FE                     __end_of_init_timer2:
  3633                           
  3634                           	psect	text11
  3635     0DE3                     __ptext11:	
  3636 ;; *************** function _init_matrix_keypad *****************
  3637 ;; Defined at:
  3638 ;;		line 4 in file "matrix_keypad.c"
  3639 ;; Parameters:    Size  Location     Type
  3640 ;;		None
  3641 ;; Auto vars:     Size  Location     Type
  3642 ;;		None
  3643 ;; Return value:  Size  Location     Type
  3644 ;;                  1    wreg      void 
  3645 ;; Registers used:
  3646 ;;		wreg, status,2
  3647 ;; Tracked objects:
  3648 ;;		On entry : 0/0
  3649 ;;		On exit  : 0/0
  3650 ;;		Unchanged: 0/0
  3651 ;; Data sizes:     COMMON   BANK0   BANK1   BANK3   BANK2
  3652 ;;      Params:         0       0       0       0       0
  3653 ;;      Locals:         0       0       0       0       0
  3654 ;;      Temps:          0       0       0       0       0
  3655 ;;      Totals:         0       0       0       0       0
  3656 ;;Total ram usage:        0 bytes
  3657 ;; Hardware stack levels used: 1
  3658 ;; Hardware stack levels required when called: 1
  3659 ;; This function calls:
  3660 ;;		Nothing
  3661 ;; This function is called by:
  3662 ;;		_init_config
  3663 ;; This function uses a non-reentrant model
  3664 ;;
  3665                           
  3666     0DE3                     _init_matrix_keypad:	
  3667                           ;psect for function _init_matrix_keypad
  3668                           
  3669     0DE3                     l1586:	
  3670                           ;incstack = 0
  3671                           ; Regs used in _init_matrix_keypad: [wreg+status,2]
  3672                           
  3673                           
  3674                           ;matrix_keypad.c: 8:     TRISB = TRISB | 0x07;
  3675     0DE3  1683               	bsf	3,5	;RP0=1, select bank1
  3676     0DE4  1303               	bcf	3,6	;RP1=0, select bank1
  3677     0DE5  0806               	movf	6,w	;volatile
  3678     0DE6  3807               	iorlw	7
  3679     0DE7  0086               	movwf	6	;volatile
  3680                           
  3681                           ;matrix_keypad.c: 12:     TRISD = TRISD & 0xF0;
  3682     0DE8  0808               	movf	8,w	;volatile
  3683     0DE9  39F0               	andlw	240
  3684     0DEA  0088               	movwf	8	;volatile
  3685     0DEB                     l1588:
  3686                           
  3687                           ;matrix_keypad.c: 15:     nRBPU = 0;
  3688     0DEB  1381               	bcf	1,7	;volatile
  3689     0DEC                     l1590:
  3690                           
  3691                           ;matrix_keypad.c: 18:     RD3 = 1;
  3692     0DEC  1283               	bcf	3,5	;RP0=0, select bank0
  3693     0DED  1303               	bcf	3,6	;RP1=0, select bank0
  3694     0DEE  1588               	bsf	8,3	;volatile
  3695     0DEF                     l1592:
  3696                           
  3697                           ;matrix_keypad.c: 19:     RD2 = 1;
  3698     0DEF  1508               	bsf	8,2	;volatile
  3699     0DF0                     l1594:
  3700                           
  3701                           ;matrix_keypad.c: 20:     RD1 = 1;
  3702     0DF0  1488               	bsf	8,1	;volatile
  3703     0DF1                     l1596:
  3704                           
  3705                           ;matrix_keypad.c: 21:     RD0 = 1;
  3706     0DF1  1408               	bsf	8,0	;volatile
  3707     0DF2                     l105:
  3708     0DF2  0008               	return
  3709     0DF3                     __end_of_init_matrix_keypad:
  3710                           
  3711                           	psect	text12
  3712     0DD8                     __ptext12:	
  3713 ;; *************** function _init_clcd *****************
  3714 ;; Defined at:
  3715 ;;		line 44 in file "clcd.c"
  3716 ;; Parameters:    Size  Location     Type
  3717 ;;		None
  3718 ;; Auto vars:     Size  Location     Type
  3719 ;;		None
  3720 ;; Return value:  Size  Location     Type
  3721 ;;                  1    wreg      void 
  3722 ;; Registers used:
  3723 ;;		wreg, status,2, status,0, pclath, cstack
  3724 ;; Tracked objects:
  3725 ;;		On entry : 0/0
  3726 ;;		On exit  : 0/0
  3727 ;;		Unchanged: 0/0
  3728 ;; Data sizes:     COMMON   BANK0   BANK1   BANK3   BANK2
  3729 ;;      Params:         0       0       0       0       0
  3730 ;;      Locals:         0       0       0       0       0
  3731 ;;      Temps:          0       0       0       0       0
  3732 ;;      Totals:         0       0       0       0       0
  3733 ;;Total ram usage:        0 bytes
  3734 ;; Hardware stack levels used: 1
  3735 ;; Hardware stack levels required when called: 3
  3736 ;; This function calls:
  3737 ;;		_init_display_controller
  3738 ;; This function is called by:
  3739 ;;		_init_config
  3740 ;; This function uses a non-reentrant model
  3741 ;;
  3742                           
  3743     0DD8                     _init_clcd:	
  3744                           ;psect for function _init_clcd
  3745                           
  3746     0DD8                     l1578:	
  3747                           ;incstack = 0
  3748                           ; Regs used in _init_clcd: [wreg+status,2+status,0+pclath+cstack]
  3749                           
  3750                           
  3751                           ;clcd.c: 47:     TRISD = 0x00;
  3752     0DD8  1683               	bsf	3,5	;RP0=1, select bank1
  3753     0DD9  1303               	bcf	3,6	;RP1=0, select bank1
  3754     0DDA  0188               	clrf	8	;volatile
  3755     0DDB                     l1580:
  3756                           
  3757                           ;clcd.c: 50:     TRISE2 = 0;
  3758     0DDB  1109               	bcf	9,2	;volatile
  3759     0DDC                     l1582:
  3760                           
  3761                           ;clcd.c: 51:     TRISE1 = 0;
  3762     0DDC  1089               	bcf	9,1	;volatile
  3763     0DDD                     l1584:
  3764                           
  3765                           ;clcd.c: 53:     init_display_controller();
  3766     0DDD  120A  118A  248E  120A  158A  	fcall	_init_display_controller
  3767     0DE2                     l170:
  3768     0DE2  0008               	return
  3769     0DE3                     __end_of_init_clcd:
  3770                           
  3771                           	psect	text13
  3772     048E                     __ptext13:	
  3773 ;; *************** function _init_display_controller *****************
  3774 ;; Defined at:
  3775 ;;		line 21 in file "clcd.c"
  3776 ;; Parameters:    Size  Location     Type
  3777 ;;		None
  3778 ;; Auto vars:     Size  Location     Type
  3779 ;;		None
  3780 ;; Return value:  Size  Location     Type
  3781 ;;                  1    wreg      void 
  3782 ;; Registers used:
  3783 ;;		wreg, status,2, status,0, pclath, cstack
  3784 ;; Tracked objects:
  3785 ;;		On entry : 0/0
  3786 ;;		On exit  : 0/0
  3787 ;;		Unchanged: 0/0
  3788 ;; Data sizes:     COMMON   BANK0   BANK1   BANK3   BANK2
  3789 ;;      Params:         0       0       0       0       0
  3790 ;;      Locals:         0       0       0       0       0
  3791 ;;      Temps:          2       0       0       0       0
  3792 ;;      Totals:         2       0       0       0       0
  3793 ;;Total ram usage:        2 bytes
  3794 ;; Hardware stack levels used: 1
  3795 ;; Hardware stack levels required when called: 2
  3796 ;; This function calls:
  3797 ;;		_clcd_write
  3798 ;; This function is called by:
  3799 ;;		_init_clcd
  3800 ;; This function uses a non-reentrant model
  3801 ;;
  3802                           
  3803     048E                     _init_display_controller:	
  3804                           ;psect for function _init_display_controller
  3805                           
  3806     048E                     l1554:	
  3807                           ;incstack = 0
  3808                           ; Regs used in _init_display_controller: [wreg+status,2+status,0+pclath+cstack]
  3809                           
  3810                           
  3811                           ;clcd.c: 24:     _delay((unsigned long)((30)*(20000000/4000.0)));
  3812     048E  30C3               	movlw	195
  3813     048F  00F7               	movwf	??_init_display_controller+1
  3814     0490  30CD               	movlw	205
  3815     0491  00F6               	movwf	??_init_display_controller
  3816     0492                     u2847:
  3817     0492  0BF6               	decfsz	??_init_display_controller,f
  3818     0493  2C92               	goto	u2847
  3819     0494  0BF7               	decfsz	??_init_display_controller+1,f
  3820     0495  2C92               	goto	u2847
  3821     0496                     l1556:
  3822                           
  3823                           ;clcd.c: 27:     clcd_write(0x33, 0);
  3824     0496  01F2               	clrf	clcd_write@mode
  3825     0497  3033               	movlw	51
  3826     0498  120A  158A  26BE  120A  118A  	fcall	_clcd_write
  3827     049D                     l1558:
  3828                           
  3829                           ;clcd.c: 28:     _delay((unsigned long)((4100)*(20000000/4000000.0)));
  3830     049D  301B               	movlw	27
  3831     049E  00F7               	movwf	??_init_display_controller+1
  3832     049F  309E               	movlw	158
  3833     04A0  00F6               	movwf	??_init_display_controller
  3834     04A1                     u2857:
  3835     04A1  0BF6               	decfsz	??_init_display_controller,f
  3836     04A2  2CA1               	goto	u2857
  3837     04A3  0BF7               	decfsz	??_init_display_controller+1,f
  3838     04A4  2CA1               	goto	u2857
  3839     04A5  0000               	nop
  3840                           
  3841                           ;clcd.c: 29:     clcd_write(0x33, 0);
  3842     04A6  01F2               	clrf	clcd_write@mode
  3843     04A7  3033               	movlw	51
  3844     04A8  120A  158A  26BE  120A  118A  	fcall	_clcd_write
  3845     04AD                     l1560:
  3846                           
  3847                           ;clcd.c: 30:     _delay((unsigned long)((100)*(20000000/4000000.0)));
  3848     04AD  30A6               	movlw	166
  3849     04AE  00F6               	movwf	??_init_display_controller
  3850     04AF                     u2867:
  3851     04AF  0BF6               	decfsz	??_init_display_controller,f
  3852     04B0  2CAF               	goto	u2867
  3853     04B1  0000               	nop
  3854     04B2                     l1562:
  3855                           
  3856                           ;clcd.c: 31:     clcd_write(0x33, 0);
  3857     04B2  01F2               	clrf	clcd_write@mode
  3858     04B3  3033               	movlw	51
  3859     04B4  120A  158A  26BE  120A  118A  	fcall	_clcd_write
  3860     04B9                     l1564:
  3861                           
  3862                           ;clcd.c: 32:     _delay((unsigned long)((1)*(20000000/4000000.0)));
  3863     04B9  2CBA               	nop2	;2 cycle nop
  3864     04BA  2CBB               	nop2	;2 cycle nop
  3865     04BB  0000               	nop
  3866     04BC                     l1566:
  3867                           
  3868                           ;clcd.c: 34:     clcd_write(0x02, 0);
  3869     04BC  01F2               	clrf	clcd_write@mode
  3870     04BD  3002               	movlw	2
  3871     04BE  120A  158A  26BE  120A  118A  	fcall	_clcd_write
  3872     04C3                     l1568:
  3873                           
  3874                           ;clcd.c: 35:     _delay((unsigned long)((100)*(20000000/4000000.0)));
  3875     04C3  30A6               	movlw	166
  3876     04C4  00F6               	movwf	??_init_display_controller
  3877     04C5                     u2877:
  3878     04C5  0BF6               	decfsz	??_init_display_controller,f
  3879     04C6  2CC5               	goto	u2877
  3880     04C7  0000               	nop
  3881                           
  3882                           ;clcd.c: 36:     clcd_write(0x28, 0);
  3883     04C8  01F2               	clrf	clcd_write@mode
  3884     04C9  3028               	movlw	40
  3885     04CA  120A  158A  26BE  120A  118A  	fcall	_clcd_write
  3886     04CF                     l1570:
  3887                           
  3888                           ;clcd.c: 37:     _delay((unsigned long)((100)*(20000000/4000000.0)));
  3889     04CF  30A6               	movlw	166
  3890     04D0  00F6               	movwf	??_init_display_controller
  3891     04D1                     u2887:
  3892     04D1  0BF6               	decfsz	??_init_display_controller,f
  3893     04D2  2CD1               	goto	u2887
  3894     04D3  0000               	nop
  3895     04D4                     l1572:
  3896                           
  3897                           ;clcd.c: 38:     clcd_write(0x01, 0);
  3898     04D4  01F2               	clrf	clcd_write@mode
  3899     04D5  3001               	movlw	1
  3900     04D6  120A  158A  26BE  120A  118A  	fcall	_clcd_write
  3901                           
  3902                           ;clcd.c: 39:     _delay((unsigned long)((500)*(20000000/4000000.0)));
  3903     04DB  3004               	movlw	4
  3904     04DC  00F7               	movwf	??_init_display_controller+1
  3905     04DD  303D               	movlw	61
  3906     04DE  00F6               	movwf	??_init_display_controller
  3907     04DF                     u2897:
  3908     04DF  0BF6               	decfsz	??_init_display_controller,f
  3909     04E0  2CDF               	goto	u2897
  3910     04E1  0BF7               	decfsz	??_init_display_controller+1,f
  3911     04E2  2CDF               	goto	u2897
  3912     04E3  2CE4               	nop2
  3913     04E4                     l1574:
  3914                           
  3915                           ;clcd.c: 40:     clcd_write(0x0C, 0);
  3916     04E4  01F2               	clrf	clcd_write@mode
  3917     04E5  300C               	movlw	12
  3918     04E6  120A  158A  26BE  120A  118A  	fcall	_clcd_write
  3919     04EB                     l1576:
  3920                           
  3921                           ;clcd.c: 41:     _delay((unsigned long)((100)*(20000000/4000000.0)));
  3922     04EB  30A6               	movlw	166
  3923     04EC  00F6               	movwf	??_init_display_controller
  3924     04ED                     u2907:
  3925     04ED  0BF6               	decfsz	??_init_display_controller,f
  3926     04EE  2CED               	goto	u2907
  3927     04EF  0000               	nop
  3928     04F0                     l167:
  3929     04F0  0008               	return
  3930     04F1                     __end_of_init_display_controller:
  3931                           
  3932                           	psect	text14
  3933     0DCE                     __ptext14:	
  3934 ;; *************** function _heat_food *****************
  3935 ;; Defined at:
  3936 ;;		line 254 in file "micro_oven.c"
  3937 ;; Parameters:    Size  Location     Type
  3938 ;;		None
  3939 ;; Auto vars:     Size  Location     Type
  3940 ;;		None
  3941 ;; Return value:  Size  Location     Type
  3942 ;;                  1    wreg      void 
  3943 ;; Registers used:
  3944 ;;		status,2
  3945 ;; Tracked objects:
  3946 ;;		On entry : 0/0
  3947 ;;		On exit  : 0/0
  3948 ;;		Unchanged: 0/0
  3949 ;; Data sizes:     COMMON   BANK0   BANK1   BANK3   BANK2
  3950 ;;      Params:         0       0       0       0       0
  3951 ;;      Locals:         0       0       0       0       0
  3952 ;;      Temps:          0       0       0       0       0
  3953 ;;      Totals:         0       0       0       0       0
  3954 ;;Total ram usage:        0 bytes
  3955 ;; Hardware stack levels used: 1
  3956 ;; Hardware stack levels required when called: 1
  3957 ;; This function calls:
  3958 ;;		Nothing
  3959 ;; This function is called by:
  3960 ;;		_main
  3961 ;; This function uses a non-reentrant model
  3962 ;;
  3963                           
  3964     0DCE                     _heat_food:	
  3965                           ;psect for function _heat_food
  3966                           
  3967     0DCE                     l2110:	
  3968                           ;incstack = 0
  3969                           ; Regs used in _heat_food: [status,2]
  3970                           
  3971                           
  3972                           ;micro_oven.c: 255:     sec = 30;
  3973     0DCE  301E               	movlw	30
  3974     0DCF  1283               	bcf	3,5	;RP0=0, select bank0
  3975     0DD0  1303               	bcf	3,6	;RP1=0, select bank0
  3976     0DD1  00BF               	movwf	_sec
  3977     0DD2                     l2112:
  3978                           
  3979                           ;micro_oven.c: 256:     min = 0;
  3980     0DD2  01BE               	clrf	_min
  3981     0DD3                     l2114:
  3982                           
  3983                           ;micro_oven.c: 257:     TMR2ON = 1;
  3984     0DD3  1512               	bsf	18,2	;volatile
  3985     0DD4                     l2116:
  3986                           
  3987                           ;micro_oven.c: 258:     RC2 = 1;
  3988     0DD4  1507               	bsf	7,2	;volatile
  3989     0DD5                     l2118:
  3990                           
  3991                           ;micro_oven.c: 259:     screen_flag = 0x70;
  3992     0DD5  3070               	movlw	112
  3993     0DD6  00C0               	movwf	_screen_flag
  3994     0DD7                     l285:
  3995     0DD7  0008               	return
  3996     0DD8                     __end_of_heat_food:
  3997                           
  3998                           	psect	text15
  3999     05E9                     __ptext15:	
  4000 ;; *************** function _display_time *****************
  4001 ;; Defined at:
  4002 ;;		line 228 in file "micro_oven.c"
  4003 ;; Parameters:    Size  Location     Type
  4004 ;;		None
  4005 ;; Auto vars:     Size  Location     Type
  4006 ;;		None
  4007 ;; Return value:  Size  Location     Type
  4008 ;;                  1    wreg      void 
  4009 ;; Registers used:
  4010 ;;		wreg, fsr0l, fsr0h, status,2, status,0, pclath, cstack
  4011 ;; Tracked objects:
  4012 ;;		On entry : 0/0
  4013 ;;		On exit  : 0/0
  4014 ;;		Unchanged: 0/0
  4015 ;; Data sizes:     COMMON   BANK0   BANK1   BANK3   BANK2
  4016 ;;      Params:         0       0       0       0       0
  4017 ;;      Locals:         0       0       0       0       0
  4018 ;;      Temps:          0       3       0       0       0
  4019 ;;      Totals:         0       3       0       0       0
  4020 ;;Total ram usage:        3 bytes
  4021 ;; Hardware stack levels used: 1
  4022 ;; Hardware stack levels required when called: 2
  4023 ;; This function calls:
  4024 ;;		___awdiv
  4025 ;;		___awmod
  4026 ;;		_clcd_print
  4027 ;;		_clcd_putch
  4028 ;;		_clear_screen
  4029 ;; This function is called by:
  4030 ;;		_main
  4031 ;; This function uses a non-reentrant model
  4032 ;;
  4033                           
  4034     05E9                     _display_time:	
  4035                           ;psect for function _display_time
  4036                           
  4037     05E9                     l2418:	
  4038                           ;incstack = 0
  4039                           ; Regs used in _display_time: [wreg-fsr0h+status,2+status,0+pclath+cstack]
  4040                           
  4041                           
  4042                           ;micro_oven.c: 230:     clcd_print("TIME = ", (0x80 + 1));
  4043     05E9  30C1               	movlw	(low ((STR_16-__stringbase)| (0+32768)))& (0+255)
  4044     05EA  00F6               	movwf	clcd_print@str
  4045     05EB  3081               	movlw	129
  4046     05EC  00F7               	movwf	clcd_print@addr
  4047     05ED  120A  158A  264F  120A  118A  	fcall	_clcd_print
  4048     05F2                     l2420:
  4049                           
  4050                           ;micro_oven.c: 231:     clcd_putch( min / 10 + '0', (0x80 + 9));
  4051     05F2  3089               	movlw	137
  4052     05F3  1283               	bcf	3,5	;RP0=0, select bank0
  4053     05F4  1303               	bcf	3,6	;RP1=0, select bank0
  4054     05F5  00A8               	movwf	clcd_putch@addr
  4055     05F6  300A               	movlw	10
  4056     05F7  00F2               	movwf	___awdiv@divisor
  4057     05F8  3000               	movlw	0
  4058     05F9  00F3               	movwf	___awdiv@divisor+1
  4059     05FA  083E               	movf	_min,w
  4060     05FB  00AA               	movwf	??_display_time
  4061     05FC  01AB               	clrf	??_display_time+1
  4062     05FD  082A               	movf	??_display_time,w
  4063     05FE  00F4               	movwf	___awdiv@dividend
  4064     05FF  082B               	movf	??_display_time+1,w
  4065     0600  00F5               	movwf	___awdiv@dividend+1
  4066     0601  120A  118A  2429  120A  118A  	fcall	___awdiv
  4067     0606  0872               	movf	?___awdiv,w
  4068     0607  3E30               	addlw	48
  4069     0608  120A  158A  2617  120A  118A  	fcall	_clcd_putch
  4070     060D                     l2422:
  4071                           
  4072                           ;micro_oven.c: 232:     clcd_putch( min % 10 + '0', (0x80 + 10));
  4073     060D  308A               	movlw	138
  4074     060E  1283               	bcf	3,5	;RP0=0, select bank0
  4075     060F  1303               	bcf	3,6	;RP1=0, select bank0
  4076     0610  00A8               	movwf	clcd_putch@addr
  4077     0611  300A               	movlw	10
  4078     0612  00A4               	movwf	___awmod@divisor
  4079     0613  3000               	movlw	0
  4080     0614  00A5               	movwf	___awmod@divisor+1
  4081     0615  083E               	movf	_min,w
  4082     0616  00AA               	movwf	??_display_time
  4083     0617  01AB               	clrf	??_display_time+1
  4084     0618  082A               	movf	??_display_time,w
  4085     0619  00A6               	movwf	___awmod@dividend
  4086     061A  082B               	movf	??_display_time+1,w
  4087     061B  00A7               	movwf	___awmod@dividend+1
  4088     061C  120A  158A  27A7  120A  118A  	fcall	___awmod
  4089     0621  1283               	bcf	3,5	;RP0=0, select bank0
  4090     0622  1303               	bcf	3,6	;RP1=0, select bank0
  4091     0623  0824               	movf	?___awmod,w
  4092     0624  3E30               	addlw	48
  4093     0625  120A  158A  2617  120A  118A  	fcall	_clcd_putch
  4094     062A                     l2424:
  4095                           
  4096                           ;micro_oven.c: 233:     clcd_putch(':', (0x80 + 11));
  4097     062A  308B               	movlw	139
  4098     062B  1283               	bcf	3,5	;RP0=0, select bank0
  4099     062C  1303               	bcf	3,6	;RP1=0, select bank0
  4100     062D  00A8               	movwf	clcd_putch@addr
  4101     062E  303A               	movlw	58
  4102     062F  120A  158A  2617  120A  118A  	fcall	_clcd_putch
  4103     0634                     l2426:
  4104                           
  4105                           ;micro_oven.c: 234:     clcd_putch( sec / 10 + '0', (0x80 + 12));
  4106     0634  308C               	movlw	140
  4107     0635  1283               	bcf	3,5	;RP0=0, select bank0
  4108     0636  1303               	bcf	3,6	;RP1=0, select bank0
  4109     0637  00A8               	movwf	clcd_putch@addr
  4110     0638  300A               	movlw	10
  4111     0639  00F2               	movwf	___awdiv@divisor
  4112     063A  3000               	movlw	0
  4113     063B  00F3               	movwf	___awdiv@divisor+1
  4114     063C  083F               	movf	_sec,w
  4115     063D  00AA               	movwf	??_display_time
  4116     063E  01AB               	clrf	??_display_time+1
  4117     063F  082A               	movf	??_display_time,w
  4118     0640  00F4               	movwf	___awdiv@dividend
  4119     0641  082B               	movf	??_display_time+1,w
  4120     0642  00F5               	movwf	___awdiv@dividend+1
  4121     0643  120A  118A  2429  120A  118A  	fcall	___awdiv
  4122     0648  0872               	movf	?___awdiv,w
  4123     0649  3E30               	addlw	48
  4124     064A  120A  158A  2617  120A  118A  	fcall	_clcd_putch
  4125     064F                     l2428:
  4126                           
  4127                           ;micro_oven.c: 235:     clcd_putch( sec % 10 + '0', (0x80 + 13));
  4128     064F  308D               	movlw	141
  4129     0650  1283               	bcf	3,5	;RP0=0, select bank0
  4130     0651  1303               	bcf	3,6	;RP1=0, select bank0
  4131     0652  00A8               	movwf	clcd_putch@addr
  4132     0653  300A               	movlw	10
  4133     0654  00A4               	movwf	___awmod@divisor
  4134     0655  3000               	movlw	0
  4135     0656  00A5               	movwf	___awmod@divisor+1
  4136     0657  083F               	movf	_sec,w
  4137     0658  00AA               	movwf	??_display_time
  4138     0659  01AB               	clrf	??_display_time+1
  4139     065A  082A               	movf	??_display_time,w
  4140     065B  00A6               	movwf	___awmod@dividend
  4141     065C  082B               	movf	??_display_time+1,w
  4142     065D  00A7               	movwf	___awmod@dividend+1
  4143     065E  120A  158A  27A7  120A  118A  	fcall	___awmod
  4144     0663  1283               	bcf	3,5	;RP0=0, select bank0
  4145     0664  1303               	bcf	3,6	;RP1=0, select bank0
  4146     0665  0824               	movf	?___awmod,w
  4147     0666  3E30               	addlw	48
  4148     0667  120A  158A  2617  120A  118A  	fcall	_clcd_putch
  4149     066C                     l2430:
  4150                           
  4151                           ;micro_oven.c: 236:     clcd_print("4.START/RESUME", (0xC0 + 2));
  4152     066C  3032               	movlw	(low ((STR_17-__stringbase)| (0+32768)))& (0+255)
  4153     066D  00F6               	movwf	clcd_print@str
  4154     066E  30C2               	movlw	194
  4155     066F  00F7               	movwf	clcd_print@addr
  4156     0670  120A  158A  264F  120A  118A  	fcall	_clcd_print
  4157     0675                     l2432:
  4158                           
  4159                           ;micro_oven.c: 237:     clcd_print("5.PAUSE", (0x90 + 2));
  4160     0675  30C9               	movlw	(low ((STR_18-__stringbase)| (0+32768)))& (0+255)
  4161     0676  00F6               	movwf	clcd_print@str
  4162     0677  3092               	movlw	146
  4163     0678  00F7               	movwf	clcd_print@addr
  4164     0679  120A  158A  264F  120A  118A  	fcall	_clcd_print
  4165     067E                     l2434:
  4166                           
  4167                           ;micro_oven.c: 238:     clcd_print("6.STOP", (0xD0 + 2));
  4168     067E  30D1               	movlw	(low ((STR_19-__stringbase)| (0+32768)))& (0+255)
  4169     067F  00F6               	movwf	clcd_print@str
  4170     0680  30D2               	movlw	210
  4171     0681  00F7               	movwf	clcd_print@addr
  4172     0682  120A  158A  264F  120A  118A  	fcall	_clcd_print
  4173     0687                     l2436:
  4174                           
  4175                           ;micro_oven.c: 240:     if(min == 0 && sec == 0)
  4176     0687  1283               	bcf	3,5	;RP0=0, select bank0
  4177     0688  1303               	bcf	3,6	;RP1=0, select bank0
  4178     0689  083E               	movf	_min,w
  4179     068A  1D03               	btfss	3,2
  4180     068B  2E8D               	goto	u2561
  4181     068C  2E8E               	goto	u2560
  4182     068D                     u2561:
  4183     068D  2EC5               	goto	l282
  4184     068E                     u2560:
  4185     068E                     l2438:
  4186     068E  083F               	movf	_sec,w
  4187     068F  1D03               	btfss	3,2
  4188     0690  2E92               	goto	u2571
  4189     0691  2E93               	goto	u2570
  4190     0692                     u2571:
  4191     0692  2EC5               	goto	l282
  4192     0693                     u2570:
  4193     0693                     l2440:
  4194                           
  4195                           ;micro_oven.c: 241:     {;micro_oven.c: 242:         clear_screen();
  4196     0693  120A  158A  25F3  120A  118A  	fcall	_clear_screen
  4197     0698                     l2442:
  4198                           
  4199                           ;micro_oven.c: 243:         TMR2ON = 0;
  4200     0698  1283               	bcf	3,5	;RP0=0, select bank0
  4201     0699  1303               	bcf	3,6	;RP1=0, select bank0
  4202     069A  1112               	bcf	18,2	;volatile
  4203     069B                     l2444:
  4204                           
  4205                           ;micro_oven.c: 244:         RC2 = 0;
  4206     069B  1107               	bcf	7,2	;volatile
  4207     069C                     l2446:
  4208                           
  4209                           ;micro_oven.c: 245:         clcd_print("TIME UP!!!", (0xC0 + 4));
  4210     069C  3091               	movlw	(low ((STR_20-__stringbase)| (0+32768)))& (0+255)
  4211     069D  00F6               	movwf	clcd_print@str
  4212     069E  30C4               	movlw	196
  4213     069F  00F7               	movwf	clcd_print@addr
  4214     06A0  120A  158A  264F  120A  118A  	fcall	_clcd_print
  4215     06A5                     l2448:
  4216                           
  4217                           ;micro_oven.c: 246:         clcd_print("Enjoy your meal", (0x90 + 0));
  4218     06A5  3022               	movlw	(low ((STR_21-__stringbase)| (0+32768)))& (0+255)
  4219     06A6  00F6               	movwf	clcd_print@str
  4220     06A7  3090               	movlw	144
  4221     06A8  00F7               	movwf	clcd_print@addr
  4222     06A9  120A  158A  264F  120A  118A  	fcall	_clcd_print
  4223     06AE                     l2450:
  4224                           
  4225                           ;micro_oven.c: 248:         _delay((unsigned long)((2000)*(20000000/4000.0)));
  4226     06AE  3033               	movlw	51
  4227     06AF  1283               	bcf	3,5	;RP0=0, select bank0
  4228     06B0  1303               	bcf	3,6	;RP1=0, select bank0
  4229     06B1  00AC               	movwf	??_display_time+2
  4230     06B2  30BB               	movlw	187
  4231     06B3  00AB               	movwf	??_display_time+1
  4232     06B4  30DF               	movlw	223
  4233     06B5  00AA               	movwf	??_display_time
  4234     06B6                     u2917:
  4235     06B6  0BAA               	decfsz	??_display_time,f
  4236     06B7  2EB6               	goto	u2917
  4237     06B8  0BAB               	decfsz	??_display_time+1,f
  4238     06B9  2EB6               	goto	u2917
  4239     06BA  0BAC               	decfsz	??_display_time+2,f
  4240     06BB  2EB6               	goto	u2917
  4241     06BC                     l2452:
  4242                           
  4243                           ;micro_oven.c: 249:         clear_screen();
  4244     06BC  120A  158A  25F3  120A  118A  	fcall	_clear_screen
  4245     06C1                     l2454:
  4246                           
  4247                           ;micro_oven.c: 250:         screen_flag = 0x20;
  4248     06C1  3020               	movlw	32
  4249     06C2  1283               	bcf	3,5	;RP0=0, select bank0
  4250     06C3  1303               	bcf	3,6	;RP1=0, select bank0
  4251     06C4  00C0               	movwf	_screen_flag
  4252     06C5                     l282:
  4253     06C5  0008               	return
  4254     06C6                     __end_of_display_time:
  4255                           
  4256                           	psect	text16
  4257     0DF3                     __ptext16:	
  4258 ;; *************** function _clear_screen *****************
  4259 ;; Defined at:
  4260 ;;		line 73 in file "clcd.c"
  4261 ;; Parameters:    Size  Location     Type
  4262 ;;		None
  4263 ;; Auto vars:     Size  Location     Type
  4264 ;;		None
  4265 ;; Return value:  Size  Location     Type
  4266 ;;                  1    wreg      void 
  4267 ;; Registers used:
  4268 ;;		wreg, status,2, status,0, pclath, cstack
  4269 ;; Tracked objects:
  4270 ;;		On entry : 0/0
  4271 ;;		On exit  : 0/0
  4272 ;;		Unchanged: 0/0
  4273 ;; Data sizes:     COMMON   BANK0   BANK1   BANK3   BANK2
  4274 ;;      Params:         0       0       0       0       0
  4275 ;;      Locals:         0       0       0       0       0
  4276 ;;      Temps:          2       0       0       0       0
  4277 ;;      Totals:         2       0       0       0       0
  4278 ;;Total ram usage:        2 bytes
  4279 ;; Hardware stack levels used: 1
  4280 ;; Hardware stack levels required when called: 1
  4281 ;; This function calls:
  4282 ;;		_clcd_write
  4283 ;; This function is called by:
  4284 ;;		_main
  4285 ;;		_set_time
  4286 ;;		_set_temp
  4287 ;;		_display_time
  4288 ;; This function uses a non-reentrant model
  4289 ;;
  4290                           
  4291     0DF3                     _clear_screen:	
  4292                           ;psect for function _clear_screen
  4293                           
  4294     0DF3                     l1600:	
  4295                           ;incstack = 0
  4296                           ; Regs used in _clear_screen: [wreg+status,2+status,0+pclath+cstack]
  4297                           
  4298                           
  4299                           ;clcd.c: 75:     clcd_write(0x01, 0);
  4300     0DF3  01F2               	clrf	clcd_write@mode
  4301     0DF4  3001               	movlw	1
  4302     0DF5  120A  158A  26BE  120A  158A  	fcall	_clcd_write
  4303     0DFA                     l1602:
  4304                           
  4305                           ;clcd.c: 76:     _delay((unsigned long)((500)*(20000000/4000000.0)));
  4306     0DFA  3004               	movlw	4
  4307     0DFB  00F7               	movwf	??_clear_screen+1
  4308     0DFC  303D               	movlw	61
  4309     0DFD  00F6               	movwf	??_clear_screen
  4310     0DFE                     u2927:
  4311     0DFE  0BF6               	decfsz	??_clear_screen,f
  4312     0DFF  2DFE               	goto	u2927
  4313     0E00  0BF7               	decfsz	??_clear_screen+1,f
  4314     0E01  2DFE               	goto	u2927
  4315     0E02  2E03               	nop2
  4316     0E03                     l182:
  4317     0E03  0008               	return
  4318     0E04                     __end_of_clear_screen:
  4319                           
  4320                           	psect	text17
  4321     0FA7                     __ptext17:	
  4322 ;; *************** function ___awmod *****************
  4323 ;; Defined at:
  4324 ;;		line 5 in file "C:\Program Files\Microchip\xc8\v3.10\pic\sources\c99\common\awmod.c"
  4325 ;; Parameters:    Size  Location     Type
  4326 ;;  divisor         2    4[BANK0 ] int 
  4327 ;;  dividend        2    6[BANK0 ] int 
  4328 ;; Auto vars:     Size  Location     Type
  4329 ;;  sign            1    7[COMMON] unsigned char 
  4330 ;;  counter         1    6[COMMON] unsigned char 
  4331 ;; Return value:  Size  Location     Type
  4332 ;;                  2    4[BANK0 ] int 
  4333 ;; Registers used:
  4334 ;;		wreg, status,2, status,0
  4335 ;; Tracked objects:
  4336 ;;		On entry : 0/0
  4337 ;;		On exit  : 0/0
  4338 ;;		Unchanged: 0/0
  4339 ;; Data sizes:     COMMON   BANK0   BANK1   BANK3   BANK2
  4340 ;;      Params:         0       4       0       0       0
  4341 ;;      Locals:         2       0       0       0       0
  4342 ;;      Temps:          0       0       0       0       0
  4343 ;;      Totals:         2       4       0       0       0
  4344 ;;Total ram usage:        6 bytes
  4345 ;; Hardware stack levels used: 1
  4346 ;; Hardware stack levels required when called: 1
  4347 ;; This function calls:
  4348 ;;		Nothing
  4349 ;; This function is called by:
  4350 ;;		_set_temp
  4351 ;;		_set_time
  4352 ;;		_display_time
  4353 ;; This function uses a non-reentrant model
  4354 ;;
  4355                           
  4356     0FA7                     ___awmod:	
  4357                           ;psect for function ___awmod
  4358                           
  4359     0FA7                     l2288:	
  4360                           ;incstack = 0
  4361                           ; Regs used in ___awmod: [wreg+status,2+status,0]
  4362                           
  4363     0FA7  01F7               	clrf	___awmod@sign
  4364     0FA8                     l2290:
  4365     0FA8  1283               	bcf	3,5	;RP0=0, select bank0
  4366     0FA9  1303               	bcf	3,6	;RP1=0, select bank0
  4367     0FAA  1FA7               	btfss	___awmod@dividend+1,7
  4368     0FAB  2FAD               	goto	u2261
  4369     0FAC  2FAE               	goto	u2260
  4370     0FAD                     u2261:
  4371     0FAD  2FB5               	goto	l2296
  4372     0FAE                     u2260:
  4373     0FAE                     l2292:
  4374     0FAE  09A6               	comf	___awmod@dividend,f
  4375     0FAF  09A7               	comf	___awmod@dividend+1,f
  4376     0FB0  0AA6               	incf	___awmod@dividend,f
  4377     0FB1  1903               	skipnz
  4378     0FB2  0AA7               	incf	___awmod@dividend+1,f
  4379     0FB3                     l2294:
  4380     0FB3  3001               	movlw	1
  4381     0FB4  00F7               	movwf	___awmod@sign
  4382     0FB5                     l2296:
  4383     0FB5  1FA5               	btfss	___awmod@divisor+1,7
  4384     0FB6  2FB8               	goto	u2271
  4385     0FB7  2FB9               	goto	u2270
  4386     0FB8                     u2271:
  4387     0FB8  2FBE               	goto	l2300
  4388     0FB9                     u2270:
  4389     0FB9                     l2298:
  4390     0FB9  09A4               	comf	___awmod@divisor,f
  4391     0FBA  09A5               	comf	___awmod@divisor+1,f
  4392     0FBB  0AA4               	incf	___awmod@divisor,f
  4393     0FBC  1903               	skipnz
  4394     0FBD  0AA5               	incf	___awmod@divisor+1,f
  4395     0FBE                     l2300:
  4396     0FBE  0824               	movf	___awmod@divisor,w
  4397     0FBF  0425               	iorwf	___awmod@divisor+1,w
  4398     0FC0  1903               	btfsc	3,2
  4399     0FC1  2FC3               	goto	u2281
  4400     0FC2  2FC4               	goto	u2280
  4401     0FC3                     u2281:
  4402     0FC3  2FF1               	goto	l2318
  4403     0FC4                     u2280:
  4404     0FC4                     l2302:
  4405     0FC4  3001               	movlw	1
  4406     0FC5  00F6               	movwf	___awmod@counter
  4407     0FC6  2FD0               	goto	l2308
  4408     0FC7                     l2304:
  4409     0FC7  3001               	movlw	1
  4410     0FC8                     u2295:
  4411     0FC8  1003               	clrc
  4412     0FC9  0DA4               	rlf	___awmod@divisor,f
  4413     0FCA  0DA5               	rlf	___awmod@divisor+1,f
  4414     0FCB  3EFF               	addlw	-1
  4415     0FCC  1D03               	skipz
  4416     0FCD  2FC8               	goto	u2295
  4417     0FCE                     l2306:
  4418     0FCE  3001               	movlw	1
  4419     0FCF  07F6               	addwf	___awmod@counter,f
  4420     0FD0                     l2308:
  4421     0FD0  1FA5               	btfss	___awmod@divisor+1,7
  4422     0FD1  2FD3               	goto	u2301
  4423     0FD2  2FD4               	goto	u2300
  4424     0FD3                     u2301:
  4425     0FD3  2FC7               	goto	l2304
  4426     0FD4                     u2300:
  4427     0FD4                     l2310:
  4428     0FD4  0825               	movf	___awmod@divisor+1,w
  4429     0FD5  0227               	subwf	___awmod@dividend+1,w
  4430     0FD6  1D03               	skipz
  4431     0FD7  2FDA               	goto	u2315
  4432     0FD8  0824               	movf	___awmod@divisor,w
  4433     0FD9  0226               	subwf	___awmod@dividend,w
  4434     0FDA                     u2315:
  4435     0FDA  1C03               	skipc
  4436     0FDB  2FDD               	goto	u2311
  4437     0FDC  2FDE               	goto	u2310
  4438     0FDD                     u2311:
  4439     0FDD  2FE4               	goto	l2314
  4440     0FDE                     u2310:
  4441     0FDE                     l2312:
  4442     0FDE  0824               	movf	___awmod@divisor,w
  4443     0FDF  02A6               	subwf	___awmod@dividend,f
  4444     0FE0  0825               	movf	___awmod@divisor+1,w
  4445     0FE1  1C03               	skipc
  4446     0FE2  03A7               	decf	___awmod@dividend+1,f
  4447     0FE3  02A7               	subwf	___awmod@dividend+1,f
  4448     0FE4                     l2314:
  4449     0FE4  3001               	movlw	1
  4450     0FE5                     u2325:
  4451     0FE5  1003               	clrc
  4452     0FE6  0CA5               	rrf	___awmod@divisor+1,f
  4453     0FE7  0CA4               	rrf	___awmod@divisor,f
  4454     0FE8  3EFF               	addlw	-1
  4455     0FE9  1D03               	skipz
  4456     0FEA  2FE5               	goto	u2325
  4457     0FEB                     l2316:
  4458     0FEB  3001               	movlw	1
  4459     0FEC  02F6               	subwf	___awmod@counter,f
  4460     0FED  1D03               	btfss	3,2
  4461     0FEE  2FF0               	goto	u2331
  4462     0FEF  2FF1               	goto	u2330
  4463     0FF0                     u2331:
  4464     0FF0  2FD4               	goto	l2310
  4465     0FF1                     u2330:
  4466     0FF1                     l2318:
  4467     0FF1  0877               	movf	___awmod@sign,w
  4468     0FF2  1903               	btfsc	3,2
  4469     0FF3  2FF5               	goto	u2341
  4470     0FF4  2FF6               	goto	u2340
  4471     0FF5                     u2341:
  4472     0FF5  2FFB               	goto	l2322
  4473     0FF6                     u2340:
  4474     0FF6                     l2320:
  4475     0FF6  09A6               	comf	___awmod@dividend,f
  4476     0FF7  09A7               	comf	___awmod@dividend+1,f
  4477     0FF8  0AA6               	incf	___awmod@dividend,f
  4478     0FF9  1903               	skipnz
  4479     0FFA  0AA7               	incf	___awmod@dividend+1,f
  4480     0FFB                     l2322:
  4481     0FFB  0827               	movf	___awmod@dividend+1,w
  4482     0FFC  00A5               	movwf	?___awmod+1
  4483     0FFD  0826               	movf	___awmod@dividend,w
  4484     0FFE  00A4               	movwf	?___awmod
  4485     0FFF                     l558:
  4486     0FFF  0008               	return
  4487     1000                     __end_of___awmod:
  4488                           
  4489                           	psect	text18
  4490     0429                     __ptext18:	
  4491 ;; *************** function ___awdiv *****************
  4492 ;; Defined at:
  4493 ;;		line 5 in file "C:\Program Files\Microchip\xc8\v3.10\pic\sources\c99\common\awdiv.c"
  4494 ;; Parameters:    Size  Location     Type
  4495 ;;  divisor         2    2[COMMON] int 
  4496 ;;  dividend        2    4[COMMON] int 
  4497 ;; Auto vars:     Size  Location     Type
  4498 ;;  quotient        2    2[BANK0 ] int 
  4499 ;;  sign            1    1[BANK0 ] unsigned char 
  4500 ;;  counter         1    0[BANK0 ] unsigned char 
  4501 ;; Return value:  Size  Location     Type
  4502 ;;                  2    2[COMMON] int 
  4503 ;; Registers used:
  4504 ;;		wreg, status,2, status,0
  4505 ;; Tracked objects:
  4506 ;;		On entry : 0/0
  4507 ;;		On exit  : 0/0
  4508 ;;		Unchanged: 0/0
  4509 ;; Data sizes:     COMMON   BANK0   BANK1   BANK3   BANK2
  4510 ;;      Params:         4       0       0       0       0
  4511 ;;      Locals:         0       4       0       0       0
  4512 ;;      Temps:          0       0       0       0       0
  4513 ;;      Totals:         4       4       0       0       0
  4514 ;;Total ram usage:        8 bytes
  4515 ;; Hardware stack levels used: 1
  4516 ;; Hardware stack levels required when called: 1
  4517 ;; This function calls:
  4518 ;;		Nothing
  4519 ;; This function is called by:
  4520 ;;		_set_temp
  4521 ;;		_set_time
  4522 ;;		_display_time
  4523 ;; This function uses a non-reentrant model
  4524 ;;
  4525                           
  4526     0429                     ___awdiv:	
  4527                           ;psect for function ___awdiv
  4528                           
  4529     0429                     l2244:	
  4530                           ;incstack = 0
  4531                           ; Regs used in ___awdiv: [wreg+status,2+status,0]
  4532                           
  4533     0429  1283               	bcf	3,5	;RP0=0, select bank0
  4534     042A  1303               	bcf	3,6	;RP1=0, select bank0
  4535     042B  01A1               	clrf	___awdiv@sign
  4536     042C                     l2246:
  4537     042C  1FF3               	btfss	___awdiv@divisor+1,7
  4538     042D  2C2F               	goto	u2161
  4539     042E  2C30               	goto	u2160
  4540     042F                     u2161:
  4541     042F  2C37               	goto	l2252
  4542     0430                     u2160:
  4543     0430                     l2248:
  4544     0430  09F2               	comf	___awdiv@divisor,f
  4545     0431  09F3               	comf	___awdiv@divisor+1,f
  4546     0432  0AF2               	incf	___awdiv@divisor,f
  4547     0433  1903               	skipnz
  4548     0434  0AF3               	incf	___awdiv@divisor+1,f
  4549     0435                     l2250:
  4550     0435  3001               	movlw	1
  4551     0436  00A1               	movwf	___awdiv@sign
  4552     0437                     l2252:
  4553     0437  1FF5               	btfss	___awdiv@dividend+1,7
  4554     0438  2C3A               	goto	u2171
  4555     0439  2C3B               	goto	u2170
  4556     043A                     u2171:
  4557     043A  2C42               	goto	l2258
  4558     043B                     u2170:
  4559     043B                     l2254:
  4560     043B  09F4               	comf	___awdiv@dividend,f
  4561     043C  09F5               	comf	___awdiv@dividend+1,f
  4562     043D  0AF4               	incf	___awdiv@dividend,f
  4563     043E  1903               	skipnz
  4564     043F  0AF5               	incf	___awdiv@dividend+1,f
  4565     0440                     l2256:
  4566     0440  3001               	movlw	1
  4567     0441  06A1               	xorwf	___awdiv@sign,f
  4568     0442                     l2258:
  4569     0442  01A2               	clrf	___awdiv@quotient
  4570     0443  01A3               	clrf	___awdiv@quotient+1
  4571     0444                     l2260:
  4572     0444  0872               	movf	___awdiv@divisor,w
  4573     0445  0473               	iorwf	___awdiv@divisor+1,w
  4574     0446  1903               	btfsc	3,2
  4575     0447  2C49               	goto	u2181
  4576     0448  2C4A               	goto	u2180
  4577     0449                     u2181:
  4578     0449  2C7F               	goto	l2280
  4579     044A                     u2180:
  4580     044A                     l2262:
  4581     044A  3001               	movlw	1
  4582     044B  00A0               	movwf	___awdiv@counter
  4583     044C  2C56               	goto	l2268
  4584     044D                     l2264:
  4585     044D  3001               	movlw	1
  4586     044E                     u2195:
  4587     044E  1003               	clrc
  4588     044F  0DF2               	rlf	___awdiv@divisor,f
  4589     0450  0DF3               	rlf	___awdiv@divisor+1,f
  4590     0451  3EFF               	addlw	-1
  4591     0452  1D03               	skipz
  4592     0453  2C4E               	goto	u2195
  4593     0454                     l2266:
  4594     0454  3001               	movlw	1
  4595     0455  07A0               	addwf	___awdiv@counter,f
  4596     0456                     l2268:
  4597     0456  1FF3               	btfss	___awdiv@divisor+1,7
  4598     0457  2C59               	goto	u2201
  4599     0458  2C5A               	goto	u2200
  4600     0459                     u2201:
  4601     0459  2C4D               	goto	l2264
  4602     045A                     u2200:
  4603     045A                     l2270:
  4604     045A  3001               	movlw	1
  4605     045B                     u2215:
  4606     045B  1003               	clrc
  4607     045C  0DA2               	rlf	___awdiv@quotient,f
  4608     045D  0DA3               	rlf	___awdiv@quotient+1,f
  4609     045E  3EFF               	addlw	-1
  4610     045F  1D03               	skipz
  4611     0460  2C5B               	goto	u2215
  4612     0461  0873               	movf	___awdiv@divisor+1,w
  4613     0462  0275               	subwf	___awdiv@dividend+1,w
  4614     0463  1D03               	skipz
  4615     0464  2C67               	goto	u2225
  4616     0465  0872               	movf	___awdiv@divisor,w
  4617     0466  0274               	subwf	___awdiv@dividend,w
  4618     0467                     u2225:
  4619     0467  1C03               	skipc
  4620     0468  2C6A               	goto	u2221
  4621     0469  2C6B               	goto	u2220
  4622     046A                     u2221:
  4623     046A  2C72               	goto	l2276
  4624     046B                     u2220:
  4625     046B                     l2272:
  4626     046B  0872               	movf	___awdiv@divisor,w
  4627     046C  02F4               	subwf	___awdiv@dividend,f
  4628     046D  0873               	movf	___awdiv@divisor+1,w
  4629     046E  1C03               	skipc
  4630     046F  03F5               	decf	___awdiv@dividend+1,f
  4631     0470  02F5               	subwf	___awdiv@dividend+1,f
  4632     0471                     l2274:
  4633     0471  1422               	bsf	___awdiv@quotient,0
  4634     0472                     l2276:
  4635     0472  3001               	movlw	1
  4636     0473                     u2235:
  4637     0473  1003               	clrc
  4638     0474  0CF3               	rrf	___awdiv@divisor+1,f
  4639     0475  0CF2               	rrf	___awdiv@divisor,f
  4640     0476  3EFF               	addlw	-1
  4641     0477  1D03               	skipz
  4642     0478  2C73               	goto	u2235
  4643     0479                     l2278:
  4644     0479  3001               	movlw	1
  4645     047A  02A0               	subwf	___awdiv@counter,f
  4646     047B  1D03               	btfss	3,2
  4647     047C  2C7E               	goto	u2241
  4648     047D  2C7F               	goto	u2240
  4649     047E                     u2241:
  4650     047E  2C5A               	goto	l2270
  4651     047F                     u2240:
  4652     047F                     l2280:
  4653     047F  0821               	movf	___awdiv@sign,w
  4654     0480  1903               	btfsc	3,2
  4655     0481  2C83               	goto	u2251
  4656     0482  2C84               	goto	u2250
  4657     0483                     u2251:
  4658     0483  2C89               	goto	l2284
  4659     0484                     u2250:
  4660     0484                     l2282:
  4661     0484  09A2               	comf	___awdiv@quotient,f
  4662     0485  09A3               	comf	___awdiv@quotient+1,f
  4663     0486  0AA2               	incf	___awdiv@quotient,f
  4664     0487  1903               	skipnz
  4665     0488  0AA3               	incf	___awdiv@quotient+1,f
  4666     0489                     l2284:
  4667     0489  0823               	movf	___awdiv@quotient+1,w
  4668     048A  00F3               	movwf	?___awdiv+1
  4669     048B  0822               	movf	___awdiv@quotient,w
  4670     048C  00F2               	movwf	?___awdiv
  4671     048D                     l545:
  4672     048D  0008               	return
  4673     048E                     __end_of___awdiv:
  4674                           
  4675                           	psect	text19
  4676     0781                     __ptext19:	
  4677 ;; *************** function _display_power_screen *****************
  4678 ;; Defined at:
  4679 ;;		line 21 in file "micro_oven.c"
  4680 ;; Parameters:    Size  Location     Type
  4681 ;;		None
  4682 ;; Auto vars:     Size  Location     Type
  4683 ;;  i               1   14[BANK0 ] unsigned char 
  4684 ;;  i               1   13[BANK0 ] unsigned char 
  4685 ;; Return value:  Size  Location     Type
  4686 ;;                  1    wreg      void 
  4687 ;; Registers used:
  4688 ;;		wreg, fsr0l, fsr0h, status,2, status,0, pclath, cstack
  4689 ;; Tracked objects:
  4690 ;;		On entry : 0/0
  4691 ;;		On exit  : 0/0
  4692 ;;		Unchanged: 0/0
  4693 ;; Data sizes:     COMMON   BANK0   BANK1   BANK3   BANK2
  4694 ;;      Params:         0       0       0       0       0
  4695 ;;      Locals:         0       2       0       0       0
  4696 ;;      Temps:          0       3       0       0       0
  4697 ;;      Totals:         0       5       0       0       0
  4698 ;;Total ram usage:        5 bytes
  4699 ;; Hardware stack levels used: 1
  4700 ;; Hardware stack levels required when called: 3
  4701 ;; This function calls:
  4702 ;;		_clcd_print
  4703 ;;		_clcd_putch
  4704 ;; This function is called by:
  4705 ;;		_main
  4706 ;; This function uses a non-reentrant model
  4707 ;;
  4708                           
  4709     0781                     _display_power_screen:	
  4710                           ;psect for function _display_power_screen
  4711                           
  4712     0781                     l1902:	
  4713                           ;incstack = 0
  4714                           ; Regs used in _display_power_screen: [wreg-fsr0h+status,2+status,0+pclath+cstack]
  4715                           
  4716                           
  4717                           ;micro_oven.c: 23:     for(unsigned char i = 0; i < 16; i++)
  4718     0781  1283               	bcf	3,5	;RP0=0, select bank0
  4719     0782  1303               	bcf	3,6	;RP1=0, select bank0
  4720     0783  01AD               	clrf	display_power_screen@i
  4721     0784                     l1908:
  4722                           
  4723                           ;micro_oven.c: 24:     {;micro_oven.c: 25:         clcd_putch(0xFF, (0x80 + i));
  4724     0784  082D               	movf	display_power_screen@i,w
  4725     0785  3E80               	addlw	128
  4726     0786  00A8               	movwf	clcd_putch@addr
  4727     0787  30FF               	movlw	255
  4728     0788  120A  158A  2617  120A  118A  	fcall	_clcd_putch
  4729     078D                     l1910:
  4730                           
  4731                           ;micro_oven.c: 26:         _delay((unsigned long)((100)*(20000000/4000.0)));
  4732     078D  3003               	movlw	3
  4733     078E  1283               	bcf	3,5	;RP0=0, select bank0
  4734     078F  1303               	bcf	3,6	;RP1=0, select bank0
  4735     0790  00AC               	movwf	??_display_power_screen+2
  4736     0791  308A               	movlw	138
  4737     0792  00AB               	movwf	??_display_power_screen+1
  4738     0793  3055               	movlw	85
  4739     0794  00AA               	movwf	??_display_power_screen
  4740     0795                     u2937:
  4741     0795  0BAA               	decfsz	??_display_power_screen,f
  4742     0796  2F95               	goto	u2937
  4743     0797  0BAB               	decfsz	??_display_power_screen+1,f
  4744     0798  2F95               	goto	u2937
  4745     0799  0BAC               	decfsz	??_display_power_screen+2,f
  4746     079A  2F95               	goto	u2937
  4747     079B                     l1912:
  4748                           
  4749                           ;micro_oven.c: 27:     }
  4750     079B  3001               	movlw	1
  4751     079C  1283               	bcf	3,5	;RP0=0, select bank0
  4752     079D  1303               	bcf	3,6	;RP1=0, select bank0
  4753     079E  07AD               	addwf	display_power_screen@i,f
  4754     079F                     l1914:
  4755     079F  3010               	movlw	16
  4756     07A0  022D               	subwf	display_power_screen@i,w
  4757     07A1  1C03               	skipc
  4758     07A2  2FA4               	goto	u1651
  4759     07A3  2FA5               	goto	u1650
  4760     07A4                     u1651:
  4761     07A4  2F84               	goto	l1908
  4762     07A5                     u1650:
  4763     07A5                     l1916:
  4764                           
  4765                           ;micro_oven.c: 28:     clcd_print("Powering ON", (0xC0 + 3));
  4766     07A5  3079               	movlw	(low ((STR_2-__stringbase)| (0+32768)))& (0+255)
  4767     07A6  00F6               	movwf	clcd_print@str
  4768     07A7  30C3               	movlw	195
  4769     07A8  00F7               	movwf	clcd_print@addr
  4770     07A9  120A  158A  264F  120A  118A  	fcall	_clcd_print
  4771                           
  4772                           ;micro_oven.c: 29:     clcd_print("Microwave Oven", (0x90 + 2));
  4773     07AE  3041               	movlw	(low ((STR_3-__stringbase)| (0+32768)))& (0+255)
  4774     07AF  00F6               	movwf	clcd_print@str
  4775     07B0  3092               	movlw	146
  4776     07B1  00F7               	movwf	clcd_print@addr
  4777     07B2  120A  158A  264F  120A  118A  	fcall	_clcd_print
  4778     07B7                     l1918:
  4779                           
  4780                           ;micro_oven.c: 30:     for(unsigned char i = 0; i < 16; i++)
  4781     07B7  1283               	bcf	3,5	;RP0=0, select bank0
  4782     07B8  1303               	bcf	3,6	;RP1=0, select bank0
  4783     07B9  01AE               	clrf	display_power_screen@i_164
  4784     07BA                     l1924:
  4785                           
  4786                           ;micro_oven.c: 31:     {;micro_oven.c: 32:         clcd_putch(0xFF, (0xD0 + i));
  4787     07BA  082E               	movf	display_power_screen@i_164,w
  4788     07BB  3ED0               	addlw	208
  4789     07BC  00A8               	movwf	clcd_putch@addr
  4790     07BD  30FF               	movlw	255
  4791     07BE  120A  158A  2617  120A  118A  	fcall	_clcd_putch
  4792     07C3                     l1926:
  4793                           
  4794                           ;micro_oven.c: 33:         _delay((unsigned long)((100)*(20000000/4000.0)));
  4795     07C3  3003               	movlw	3
  4796     07C4  1283               	bcf	3,5	;RP0=0, select bank0
  4797     07C5  1303               	bcf	3,6	;RP1=0, select bank0
  4798     07C6  00AC               	movwf	??_display_power_screen+2
  4799     07C7  308A               	movlw	138
  4800     07C8  00AB               	movwf	??_display_power_screen+1
  4801     07C9  3055               	movlw	85
  4802     07CA  00AA               	movwf	??_display_power_screen
  4803     07CB                     u2947:
  4804     07CB  0BAA               	decfsz	??_display_power_screen,f
  4805     07CC  2FCB               	goto	u2947
  4806     07CD  0BAB               	decfsz	??_display_power_screen+1,f
  4807     07CE  2FCB               	goto	u2947
  4808     07CF  0BAC               	decfsz	??_display_power_screen+2,f
  4809     07D0  2FCB               	goto	u2947
  4810     07D1                     l1928:
  4811                           
  4812                           ;micro_oven.c: 34:     }
  4813     07D1  3001               	movlw	1
  4814     07D2  1283               	bcf	3,5	;RP0=0, select bank0
  4815     07D3  1303               	bcf	3,6	;RP1=0, select bank0
  4816     07D4  07AE               	addwf	display_power_screen@i_164,f
  4817     07D5                     l1930:
  4818     07D5  3010               	movlw	16
  4819     07D6  022E               	subwf	display_power_screen@i_164,w
  4820     07D7  1C03               	skipc
  4821     07D8  2FDA               	goto	u1661
  4822     07D9  2FDB               	goto	u1660
  4823     07DA                     u1661:
  4824     07DA  2FBA               	goto	l1924
  4825     07DB                     u1660:
  4826     07DB                     l1932:
  4827                           
  4828                           ;micro_oven.c: 35:     _delay((unsigned long)((1000)*(20000000/4000.0)));
  4829     07DB  301A               	movlw	26
  4830     07DC  1283               	bcf	3,5	;RP0=0, select bank0
  4831     07DD  1303               	bcf	3,6	;RP1=0, select bank0
  4832     07DE  00AC               	movwf	??_display_power_screen+2
  4833     07DF  305E               	movlw	94
  4834     07E0  00AB               	movwf	??_display_power_screen+1
  4835     07E1  306D               	movlw	109
  4836     07E2  00AA               	movwf	??_display_power_screen
  4837     07E3                     u2957:
  4838     07E3  0BAA               	decfsz	??_display_power_screen,f
  4839     07E4  2FE3               	goto	u2957
  4840     07E5  0BAB               	decfsz	??_display_power_screen+1,f
  4841     07E6  2FE3               	goto	u2957
  4842     07E7  0BAC               	decfsz	??_display_power_screen+2,f
  4843     07E8  2FE3               	goto	u2957
  4844     07E9  2FEA               	nop2
  4845     07EA                     l224:
  4846     07EA  0008               	return
  4847     07EB                     __end_of_display_power_screen:
  4848                           
  4849                           	psect	text20
  4850     0E17                     __ptext20:	
  4851 ;; *************** function _clcd_putch *****************
  4852 ;; Defined at:
  4853 ;;		line 56 in file "clcd.c"
  4854 ;; Parameters:    Size  Location     Type
  4855 ;;  data            1    wreg     const unsigned char 
  4856 ;;  addr            1    8[BANK0 ] unsigned char 
  4857 ;; Auto vars:     Size  Location     Type
  4858 ;;  data            1    9[BANK0 ] const unsigned char 
  4859 ;; Return value:  Size  Location     Type
  4860 ;;                  1    wreg      void 
  4861 ;; Registers used:
  4862 ;;		wreg, status,2, status,0, pclath, cstack
  4863 ;; Tracked objects:
  4864 ;;		On entry : 0/0
  4865 ;;		On exit  : 0/0
  4866 ;;		Unchanged: 0/0
  4867 ;; Data sizes:     COMMON   BANK0   BANK1   BANK3   BANK2
  4868 ;;      Params:         0       1       0       0       0
  4869 ;;      Locals:         0       1       0       0       0
  4870 ;;      Temps:          0       0       0       0       0
  4871 ;;      Totals:         0       2       0       0       0
  4872 ;;Total ram usage:        2 bytes
  4873 ;; Hardware stack levels used: 1
  4874 ;; Hardware stack levels required when called: 1
  4875 ;; This function calls:
  4876 ;;		_clcd_write
  4877 ;; This function is called by:
  4878 ;;		_display_power_screen
  4879 ;;		_set_time
  4880 ;;		_set_temp
  4881 ;;		_display_time
  4882 ;; This function uses a non-reentrant model
  4883 ;;
  4884                           
  4885     0E17                     _clcd_putch:	
  4886                           ;psect for function _clcd_putch
  4887                           
  4888                           
  4889                           ;incstack = 0
  4890                           ; Regs used in _clcd_putch: [wreg+status,2+status,0+pclath+cstack]
  4891                           ;clcd_putch@data stored from wreg
  4892     0E17  1283               	bcf	3,5	;RP0=0, select bank0
  4893     0E18  1303               	bcf	3,6	;RP1=0, select bank0
  4894     0E19  00A9               	movwf	clcd_putch@data
  4895     0E1A                     l1716:
  4896                           
  4897                           ;clcd.c: 56: void clcd_putch(const char data, unsigned char addr);clcd.c: 57: {;clcd.c: 
      +                          58:     clcd_write(addr, 0);
  4898     0E1A  01F2               	clrf	clcd_write@mode
  4899     0E1B  0828               	movf	clcd_putch@addr,w
  4900     0E1C  120A  158A  26BE  120A  158A  	fcall	_clcd_write
  4901                           
  4902                           ;clcd.c: 59:     clcd_write(data, 1);
  4903     0E21  01F2               	clrf	clcd_write@mode
  4904     0E22  0AF2               	incf	clcd_write@mode,f
  4905     0E23  1283               	bcf	3,5	;RP0=0, select bank0
  4906     0E24  1303               	bcf	3,6	;RP1=0, select bank0
  4907     0E25  0829               	movf	clcd_putch@data,w
  4908     0E26  120A  158A  26BE  120A  158A  	fcall	_clcd_write
  4909     0E2B                     l173:
  4910     0E2B  0008               	return
  4911     0E2C                     __end_of_clcd_putch:
  4912                           
  4913                           	psect	text21
  4914     0E74                     __ptext21:	
  4915 ;; *************** function _display_modes *****************
  4916 ;; Defined at:
  4917 ;;		line 39 in file "micro_oven.c"
  4918 ;; Parameters:    Size  Location     Type
  4919 ;;		None
  4920 ;; Auto vars:     Size  Location     Type
  4921 ;;		None
  4922 ;; Return value:  Size  Location     Type
  4923 ;;                  1    wreg      void 
  4924 ;; Registers used:
  4925 ;;		wreg, fsr0l, fsr0h, status,2, status,0, pclath, cstack
  4926 ;; Tracked objects:
  4927 ;;		On entry : 0/0
  4928 ;;		On exit  : 0/0
  4929 ;;		Unchanged: 0/0
  4930 ;; Data sizes:     COMMON   BANK0   BANK1   BANK3   BANK2
  4931 ;;      Params:         0       0       0       0       0
  4932 ;;      Locals:         0       0       0       0       0
  4933 ;;      Temps:          0       0       0       0       0
  4934 ;;      Totals:         0       0       0       0       0
  4935 ;;Total ram usage:        0 bytes
  4936 ;; Hardware stack levels used: 1
  4937 ;; Hardware stack levels required when called: 2
  4938 ;; This function calls:
  4939 ;;		_clcd_print
  4940 ;; This function is called by:
  4941 ;;		_main
  4942 ;; This function uses a non-reentrant model
  4943 ;;
  4944                           
  4945     0E74                     _display_modes:	
  4946                           ;psect for function _display_modes
  4947                           
  4948     0E74                     l1934:	
  4949                           ;incstack = 0
  4950                           ; Regs used in _display_modes: [wreg-fsr0h+status,2+status,0+pclath+cstack]
  4951                           
  4952                           
  4953                           ;micro_oven.c: 41:     clcd_print("1. Micro", (0x80 + 3));
  4954     0E74  30AF               	movlw	(low ((STR_4-__stringbase)| (0+32768)))& (0+255)
  4955     0E75  00F6               	movwf	clcd_print@str
  4956     0E76  3083               	movlw	131
  4957     0E77  00F7               	movwf	clcd_print@addr
  4958     0E78  120A  158A  264F  120A  158A  	fcall	_clcd_print
  4959                           
  4960                           ;micro_oven.c: 42:     clcd_print("2. Grill", (0xC0 + 3));
  4961     0E7D  30A6               	movlw	(low ((STR_5-__stringbase)| (0+32768)))& (0+255)
  4962     0E7E  00F6               	movwf	clcd_print@str
  4963     0E7F  30C3               	movlw	195
  4964     0E80  00F7               	movwf	clcd_print@addr
  4965     0E81  120A  158A  264F  120A  158A  	fcall	_clcd_print
  4966                           
  4967                           ;micro_oven.c: 43:     clcd_print("3. Convection", (0x90 + 3));
  4968     0E86  305E               	movlw	(low ((STR_6-__stringbase)| (0+32768)))& (0+255)
  4969     0E87  00F6               	movwf	clcd_print@str
  4970     0E88  3093               	movlw	147
  4971     0E89  00F7               	movwf	clcd_print@addr
  4972     0E8A  120A  158A  264F  120A  158A  	fcall	_clcd_print
  4973                           
  4974                           ;micro_oven.c: 44:     clcd_print("4. Start", (0xD0 + 3));
  4975     0E8F  30B8               	movlw	(low ((STR_7-__stringbase)| (0+32768)))& (0+255)
  4976     0E90  00F6               	movwf	clcd_print@str
  4977     0E91  30D3               	movlw	211
  4978     0E92  00F7               	movwf	clcd_print@addr
  4979     0E93  120A  158A  264F  120A  158A  	fcall	_clcd_print
  4980     0E98                     l227:
  4981     0E98  0008               	return
  4982     0E99                     __end_of_display_modes:
  4983                           
  4984                           	psect	text22
  4985     0E4F                     __ptext22:	
  4986 ;; *************** function _clcd_print *****************
  4987 ;; Defined at:
  4988 ;;		line 62 in file "clcd.c"
  4989 ;; Parameters:    Size  Location     Type
  4990 ;;  str             1    6[COMMON] PTR const unsigned char 
  4991 ;;		 -> STR_21(16), STR_20(11), STR_19(7), STR_18(8), 
  4992 ;;		 -> STR_17(15), STR_16(8), STR_15(10), STR_14(12), 
  4993 ;;		 -> STR_13(16), STR_12(6), STR_11(14), STR_10(16), 
  4994 ;;		 -> STR_9(6), STR_8(17), STR_7(9), STR_6(14), 
  4995 ;;		 -> STR_5(9), STR_4(9), STR_3(15), STR_2(12), 
  4996 ;;		 -> STR_1(13), 
  4997 ;;  addr            1    7[COMMON] unsigned char 
  4998 ;; Auto vars:     Size  Location     Type
  4999 ;;		None
  5000 ;; Return value:  Size  Location     Type
  5001 ;;                  1    wreg      void 
  5002 ;; Registers used:
  5003 ;;		wreg, fsr0l, fsr0h, status,2, status,0, pclath, cstack
  5004 ;; Tracked objects:
  5005 ;;		On entry : 0/0
  5006 ;;		On exit  : 0/0
  5007 ;;		Unchanged: 0/0
  5008 ;; Data sizes:     COMMON   BANK0   BANK1   BANK3   BANK2
  5009 ;;      Params:         2       0       0       0       0
  5010 ;;      Locals:         0       0       0       0       0
  5011 ;;      Temps:          0       0       0       0       0
  5012 ;;      Totals:         2       0       0       0       0
  5013 ;;Total ram usage:        2 bytes
  5014 ;; Hardware stack levels used: 1
  5015 ;; Hardware stack levels required when called: 1
  5016 ;; This function calls:
  5017 ;;		_clcd_write
  5018 ;; This function is called by:
  5019 ;;		_main
  5020 ;;		_display_power_screen
  5021 ;;		_display_modes
  5022 ;;		_set_time
  5023 ;;		_set_temp
  5024 ;;		_display_time
  5025 ;; This function uses a non-reentrant model
  5026 ;;
  5027                           
  5028     0E4F                     _clcd_print:	
  5029                           ;psect for function _clcd_print
  5030                           
  5031     0E4F                     l1604:	
  5032                           ;incstack = 0
  5033                           ; Regs used in _clcd_print: [wreg-fsr0h+status,2+status,0+pclath+cstack]
  5034                           
  5035                           
  5036                           ;clcd.c: 62: void clcd_print(const char *str, unsigned char addr);clcd.c: 63: {;clcd.c: 
      +                          64:     clcd_write(addr, 0);
  5037     0E4F  01F2               	clrf	clcd_write@mode
  5038     0E50  0877               	movf	clcd_print@addr,w
  5039     0E51  120A  158A  26BE  120A  158A  	fcall	_clcd_write
  5040                           
  5041                           ;clcd.c: 66:     while (*str != '\0')
  5042     0E56  2E67               	goto	l1610
  5043     0E57                     l1606:
  5044                           
  5045                           ;clcd.c: 67:     {;clcd.c: 68:         clcd_write(*str, 1);
  5046     0E57  01F2               	clrf	clcd_write@mode
  5047     0E58  0AF2               	incf	clcd_write@mode,f
  5048     0E59  0876               	movf	clcd_print@str,w
  5049     0E5A  0084               	movwf	4
  5050     0E5B  120A  118A  2500  120A  158A  	fcall	stringdir
  5051     0E60  120A  158A  26BE  120A  158A  	fcall	_clcd_write
  5052     0E65                     l1608:
  5053                           
  5054                           ;clcd.c: 69:         str++;
  5055     0E65  3001               	movlw	1
  5056     0E66  07F6               	addwf	clcd_print@str,f
  5057     0E67                     l1610:
  5058                           
  5059                           ;clcd.c: 66:     while (*str != '\0')
  5060     0E67  0876               	movf	clcd_print@str,w
  5061     0E68  0084               	movwf	4
  5062     0E69  120A  118A  2500  120A  158A  	fcall	stringdir
  5063     0E6E  3A00               	xorlw	0
  5064     0E6F  1D03               	skipz
  5065     0E70  2E72               	goto	u1081
  5066     0E71  2E73               	goto	u1080
  5067     0E72                     u1081:
  5068     0E72  2E57               	goto	l1606
  5069     0E73                     u1080:
  5070     0E73                     l179:
  5071     0E73  0008               	return
  5072     0E74                     __end_of_clcd_print:
  5073                           
  5074                           	psect	text23
  5075     0EBE                     __ptext23:	
  5076 ;; *************** function _clcd_write *****************
  5077 ;; Defined at:
  5078 ;;		line 4 in file "clcd.c"
  5079 ;; Parameters:    Size  Location     Type
  5080 ;;  byte            1    wreg     unsigned char 
  5081 ;;  mode            1    2[COMMON] unsigned char 
  5082 ;; Auto vars:     Size  Location     Type
  5083 ;;  byte            1    5[COMMON] unsigned char 
  5084 ;; Return value:  Size  Location     Type
  5085 ;;                  1    wreg      void 
  5086 ;; Registers used:
  5087 ;;		wreg, status,2, status,0
  5088 ;; Tracked objects:
  5089 ;;		On entry : 0/0
  5090 ;;		On exit  : 0/0
  5091 ;;		Unchanged: 0/0
  5092 ;; Data sizes:     COMMON   BANK0   BANK1   BANK3   BANK2
  5093 ;;      Params:         1       0       0       0       0
  5094 ;;      Locals:         1       0       0       0       0
  5095 ;;      Temps:          2       0       0       0       0
  5096 ;;      Totals:         4       0       0       0       0
  5097 ;;Total ram usage:        4 bytes
  5098 ;; Hardware stack levels used: 1
  5099 ;; Hardware stack levels required when called: 1
  5100 ;; This function calls:
  5101 ;;		Nothing
  5102 ;; This function is called by:
  5103 ;;		_init_display_controller
  5104 ;;		_clcd_putch
  5105 ;;		_clcd_print
  5106 ;;		_clear_screen
  5107 ;; This function uses a non-reentrant model
  5108 ;;
  5109                           
  5110     0EBE                     _clcd_write:	
  5111                           ;psect for function _clcd_write
  5112                           
  5113                           
  5114                           ;incstack = 0
  5115                           ; Regs used in _clcd_write: [wreg+status,2+status,0]
  5116                           ;clcd_write@byte stored from wreg
  5117     0EBE  00F5               	movwf	clcd_write@byte
  5118     0EBF                     l1534:
  5119                           
  5120                           ;clcd.c: 4: static void clcd_write(unsigned char byte, unsigned char mode);clcd.c: 5: {;
      +                          clcd.c: 6:     RE2 = (__bit)mode;
  5121     0EBF  1872               	btfsc	clcd_write@mode,0
  5122     0EC0  2EC2               	goto	u1051
  5123     0EC1  2EC6               	goto	u1050
  5124     0EC2                     u1051:
  5125     0EC2  1283               	bcf	3,5	;RP0=0, select bank0
  5126     0EC3  1303               	bcf	3,6	;RP1=0, select bank0
  5127     0EC4  1509               	bsf	9,2	;volatile
  5128     0EC5  2EC9               	goto	u1064
  5129     0EC6                     u1050:
  5130     0EC6  1283               	bcf	3,5	;RP0=0, select bank0
  5131     0EC7  1303               	bcf	3,6	;RP1=0, select bank0
  5132     0EC8  1109               	bcf	9,2	;volatile
  5133     0EC9                     u1064:
  5134     0EC9                     l1536:
  5135                           
  5136                           ;clcd.c: 8:     PORTD = byte & 0xF0;
  5137     0EC9  0875               	movf	clcd_write@byte,w
  5138     0ECA  39F0               	andlw	240
  5139     0ECB  0088               	movwf	8	;volatile
  5140     0ECC                     l1538:
  5141                           
  5142                           ;clcd.c: 9:     RE1 = 1;
  5143     0ECC  1489               	bsf	9,1	;volatile
  5144     0ECD                     l1540:
  5145                           
  5146                           ;clcd.c: 10:     _delay((unsigned long)((100)*(20000000/4000000.0)));
  5147     0ECD  30A6               	movlw	166
  5148     0ECE  00F3               	movwf	??_clcd_write
  5149     0ECF                     u2967:
  5150     0ECF  0BF3               	decfsz	??_clcd_write,f
  5151     0ED0  2ECF               	goto	u2967
  5152     0ED1  0000               	nop
  5153     0ED2                     l1542:
  5154                           
  5155                           ;clcd.c: 11:     RE1 = 0;
  5156     0ED2  1283               	bcf	3,5	;RP0=0, select bank0
  5157     0ED3  1303               	bcf	3,6	;RP1=0, select bank0
  5158     0ED4  1089               	bcf	9,1	;volatile
  5159     0ED5                     l1544:
  5160                           
  5161                           ;clcd.c: 13:     PORTD = (unsigned char)((byte & 0x0F) << 4);
  5162     0ED5  0875               	movf	clcd_write@byte,w
  5163     0ED6  390F               	andlw	15
  5164     0ED7  00F3               	movwf	??_clcd_write
  5165     0ED8  3003               	movlw	3
  5166     0ED9                     u1075:
  5167     0ED9  1003               	clrc
  5168     0EDA  0DF3               	rlf	??_clcd_write,f
  5169     0EDB  3EFF               	addlw	-1
  5170     0EDC  1D03               	skipz
  5171     0EDD  2ED9               	goto	u1075
  5172     0EDE  1003               	clrc
  5173     0EDF  0D73               	rlf	??_clcd_write,w
  5174     0EE0  0088               	movwf	8	;volatile
  5175     0EE1                     l1546:
  5176                           
  5177                           ;clcd.c: 14:     RE1 = 1;
  5178     0EE1  1489               	bsf	9,1	;volatile
  5179     0EE2                     l1548:
  5180                           
  5181                           ;clcd.c: 15:     _delay((unsigned long)((100)*(20000000/4000000.0)));
  5182     0EE2  30A6               	movlw	166
  5183     0EE3  00F3               	movwf	??_clcd_write
  5184     0EE4                     u2977:
  5185     0EE4  0BF3               	decfsz	??_clcd_write,f
  5186     0EE5  2EE4               	goto	u2977
  5187     0EE6  0000               	nop
  5188     0EE7                     l1550:
  5189                           
  5190                           ;clcd.c: 16:     RE1 = 0;
  5191     0EE7  1283               	bcf	3,5	;RP0=0, select bank0
  5192     0EE8  1303               	bcf	3,6	;RP1=0, select bank0
  5193     0EE9  1089               	bcf	9,1	;volatile
  5194     0EEA                     l1552:
  5195                           
  5196                           ;clcd.c: 18:     _delay((unsigned long)((4100)*(20000000/4000000.0)));
  5197     0EEA  301B               	movlw	27
  5198     0EEB  00F4               	movwf	??_clcd_write+1
  5199     0EEC  309E               	movlw	158
  5200     0EED  00F3               	movwf	??_clcd_write
  5201     0EEE                     u2987:
  5202     0EEE  0BF3               	decfsz	??_clcd_write,f
  5203     0EEF  2EEE               	goto	u2987
  5204     0EF0  0BF4               	decfsz	??_clcd_write+1,f
  5205     0EF1  2EEE               	goto	u2987
  5206     0EF2  0000               	nop
  5207     0EF3                     l164:
  5208     0EF3  0008               	return
  5209     0EF4                     __end_of_clcd_write:
  5210                           
  5211                           	psect	text24
  5212     0EF4                     __ptext24:	
  5213 ;; *************** function _isr *****************
  5214 ;; Defined at:
  5215 ;;		line 5 in file "isr.c"
  5216 ;; Parameters:    Size  Location     Type
  5217 ;;		None
  5218 ;; Auto vars:     Size  Location     Type
  5219 ;;		None
  5220 ;; Return value:  Size  Location     Type
  5221 ;;                  1    wreg      void 
  5222 ;; Registers used:
  5223 ;;		wreg, status,2, status,0
  5224 ;; Tracked objects:
  5225 ;;		On entry : 0/0
  5226 ;;		On exit  : 0/0
  5227 ;;		Unchanged: 0/0
  5228 ;; Data sizes:     COMMON   BANK0   BANK1   BANK3   BANK2
  5229 ;;      Params:         0       0       0       0       0
  5230 ;;      Locals:         0       0       0       0       0
  5231 ;;      Temps:          2       0       0       0       0
  5232 ;;      Totals:         2       0       0       0       0
  5233 ;;Total ram usage:        2 bytes
  5234 ;; Hardware stack levels used: 1
  5235 ;; This function calls:
  5236 ;;		Nothing
  5237 ;; This function is called by:
  5238 ;;		Interrupt level 1
  5239 ;; This function uses a non-reentrant model
  5240 ;;
  5241                           
  5242     0EF4                     _isr:	
  5243                           ;psect for function _isr
  5244                           
  5245     0EF4                     i1l2210:
  5246                           
  5247                           ;isr.c: 7:     static unsigned int count = 0;;isr.c: 9:     if (TMR2IF)
  5248     0EF4  1283               	bcf	3,5	;RP0=0, select bank0
  5249     0EF5  1303               	bcf	3,6	;RP1=0, select bank0
  5250     0EF6  1C8C               	btfss	12,1	;volatile
  5251     0EF7  2EF9               	goto	u209_21
  5252     0EF8  2EFA               	goto	u209_20
  5253     0EF9                     u209_21:
  5254     0EF9  2F24               	goto	i1l306
  5255     0EFA                     u209_20:
  5256     0EFA                     i1l2212:
  5257                           
  5258                           ;isr.c: 10:     {;isr.c: 11:         if (++count == 1250)
  5259     0EFA  3001               	movlw	1
  5260     0EFB  07F9               	addwf	isr@count,f
  5261     0EFC  1803               	skipnc
  5262     0EFD  0AFA               	incf	isr@count+1,f
  5263     0EFE  3000               	movlw	0
  5264     0EFF  07FA               	addwf	isr@count+1,f
  5265     0F00  30E2               	movlw	226
  5266     0F01  0679               	xorwf	isr@count,w
  5267     0F02  3004               	movlw	4
  5268     0F03  1903               	skipnz
  5269     0F04  067A               	xorwf	isr@count+1,w
  5270     0F05  1D03               	btfss	3,2
  5271     0F06  2F08               	goto	u210_21
  5272     0F07  2F09               	goto	u210_20
  5273     0F08                     u210_21:
  5274     0F08  2F23               	goto	i1l2228
  5275     0F09                     u210_20:
  5276     0F09                     i1l2214:
  5277                           
  5278                           ;isr.c: 12:         {;isr.c: 13:             count = 0;
  5279     0F09  01F9               	clrf	isr@count
  5280     0F0A  01FA               	clrf	isr@count+1
  5281     0F0B                     i1l2216:
  5282                           
  5283                           ;isr.c: 14:             if (sec > 0) sec--;
  5284     0F0B  083F               	movf	_sec,w
  5285     0F0C  1903               	btfsc	3,2
  5286     0F0D  2F0F               	goto	u211_21
  5287     0F0E  2F10               	goto	u211_20
  5288     0F0F                     u211_21:
  5289     0F0F  2F13               	goto	i1l2220
  5290     0F10                     u211_20:
  5291     0F10                     i1l2218:
  5292     0F10  3001               	movlw	1
  5293     0F11  02BF               	subwf	_sec,f
  5294     0F12  2F1C               	goto	i1l303
  5295     0F13                     i1l2220:
  5296     0F13  083E               	movf	_min,w
  5297     0F14  1903               	btfsc	3,2
  5298     0F15  2F17               	goto	u212_21
  5299     0F16  2F18               	goto	u212_20
  5300     0F17                     u212_21:
  5301     0F17  2F1C               	goto	i1l303
  5302     0F18                     u212_20:
  5303     0F18                     i1l2222:
  5304     0F18  3001               	movlw	1
  5305     0F19  02BE               	subwf	_min,f
  5306     0F1A                     i1l2224:
  5307     0F1A  303B               	movlw	59
  5308     0F1B  00BF               	movwf	_sec
  5309     0F1C                     i1l303:
  5310                           
  5311                           ;isr.c: 17:             if(pre_heat > 0) pre_heat--;
  5312     0F1C  083D               	movf	_pre_heat,w
  5313     0F1D  1903               	btfsc	3,2
  5314     0F1E  2F20               	goto	u213_21
  5315     0F1F  2F21               	goto	u213_20
  5316     0F20                     u213_21:
  5317     0F20  2F23               	goto	i1l2228
  5318     0F21                     u213_20:
  5319     0F21                     i1l2226:
  5320     0F21  3001               	movlw	1
  5321     0F22  02BD               	subwf	_pre_heat,f
  5322     0F23                     i1l2228:
  5323                           
  5324                           ;isr.c: 21:         TMR2IF = 0;
  5325     0F23  108C               	bcf	12,1	;volatile
  5326     0F24                     i1l306:
  5327     0F24  0871               	movf	??_isr+1,w
  5328     0F25  008A               	movwf	10
  5329     0F26  0E70               	swapf	??_isr,w
  5330     0F27  0083               	movwf	3
  5331     0F28  0EFE               	swapf	btemp,f
  5332     0F29  0E7E               	swapf	btemp,w
  5333     0F2A  0009               	retfie
  5334     0F2B                     __end_of_isr:
  5335     0002                     ___latbits      equ	2
  5336     007E                     btemp           set	126	;btemp
  5337     007E                     btemp0          set	126
  5338     007F                     btemp1          set	127
  5339     007E                     wtemp0          set	126
  5340     007F                     wtemp0a         set	127
  5341     007F                     ttemp0a         set	127
  5342     0080                     ltemp0a         set	128
  5343                           
  5344                           	psect	intentry
  5345     0004                     __pintentry:	
  5346                           ;incstack = 0
  5347                           ; Regs used in _isr: [wreg+status,2+status,0]
  5348                           
  5349     0004                     interrupt_function:
  5350     007E                     saved_w         set	btemp
  5351     0004  00FE               	movwf	btemp
  5352     0005  0E03               	swapf	3,w
  5353     0006  00F0               	movwf	??_isr
  5354     0007  080A               	movf	10,w
  5355     0008  00F1               	movwf	??_isr+1
  5356     0009  120A  158A  2EF4   	ljmp	_isr
  5357                           
  5358                           	psect	config
  5359                           
  5360                           ;Config register CONFIG @ 0x2007
  5361                           ;	Oscillator Selection bits
  5362                           ;	FOSC = 0x3, unprogrammed default
  5363                           ;	Watchdog Timer Enable bit
  5364                           ;	WDTE = OFF, WDT disabled
  5365                           ;	Power-up Timer Enable bit
  5366                           ;	PWRTE = 0x1, unprogrammed default
  5367                           ;	Brown-out Reset Enable bit
  5368                           ;	BOREN = 0x1, unprogrammed default
  5369                           ;	Low-Voltage (Single-Supply) In-Circuit Serial Programming Enable bit
  5370                           ;	LVP = 0x1, unprogrammed default
  5371                           ;	Data EEPROM Memory Code Protection bit
  5372                           ;	CPD = 0x1, unprogrammed default
  5373                           ;	Flash Program Memory Write Enable bits
  5374                           ;	WRT = 0x3, unprogrammed default
  5375                           ;	In-Circuit Debugger Mode bit
  5376                           ;	DEBUG = 0x1, unprogrammed default
  5377                           ;	Flash Program Memory Code Protection bit
  5378                           ;	CP = 0x1, unprogrammed default
  5379     2007                     	org	8199
  5380     2007  3FFB               	dw	16379

Data Sizes:
    Strings     227
    Constant    0
    Data        2
    BSS         14
    Persistent  0
    Stack       0

Auto Spaces:
    Space          Size  Autos    Used
    COMMON           14      9      12
    BANK0            80     20      33
    BANK1            80      0       0
    BANK3            96      0       0
    BANK2            96      0       0

Pointer List with Targets:

    clcd_print@str	PTR const unsigned char  size(1) Largest target is 17
		 -> STR_1(CODE[13]), STR_10(CODE[16]), STR_11(CODE[14]), STR_12(CODE[6]), 
		 -> STR_13(CODE[16]), STR_14(CODE[12]), STR_15(CODE[10]), STR_16(CODE[8]), 
		 -> STR_17(CODE[15]), STR_18(CODE[8]), STR_19(CODE[7]), STR_2(CODE[12]), 
		 -> STR_20(CODE[11]), STR_21(CODE[16]), STR_3(CODE[15]), STR_4(CODE[9]), 
		 -> STR_5(CODE[9]), STR_6(CODE[14]), STR_7(CODE[9]), STR_8(CODE[17]), 
		 -> STR_9(CODE[6]), 


Critical Paths under _main in COMMON

    _set_temp->___lwdiv
    ___lwmod->___lwdiv
    _read_matrix_keypad->_scan_keypad
    _init_clcd->_init_display_controller
    _init_display_controller->_clcd_write
    _clear_screen->_clcd_write
    ___awmod->___awdiv
    _clcd_putch->___lwdiv
    _display_modes->_clcd_print
    _clcd_print->_clcd_write

Critical Paths under _isr in COMMON

    None.

Critical Paths under _main in BANK0

    _main->_display_power_screen
    _set_time->_clcd_putch
    _set_temp->_clcd_putch
    _display_time->_clcd_putch
    ___awmod->___awdiv
    _display_power_screen->_clcd_putch
    _clcd_putch->___awmod

Critical Paths under _isr in BANK0

    None.

Critical Paths under _main in BANK1

    None.

Critical Paths under _isr in BANK1

    None.

Critical Paths under _main in BANK3

    None.

Critical Paths under _isr in BANK3

    None.

Critical Paths under _main in BANK2

    None.

Critical Paths under _isr in BANK2

    None.

Call Graph Tables:

 ---------------------------------------------------------------------------------
 (Depth) Function   	        Calls       Base Space   Used Autos Params    Refs
 ---------------------------------------------------------------------------------
 (0) _main                                                 5     5      0    7167
                                             15 BANK0      5     5      0
                         _clcd_print
                       _clear_screen
                      _display_modes
               _display_power_screen
                       _display_time
                          _heat_food
                        _init_config
                 _read_matrix_keypad
                           _set_temp
                           _set_time
 ---------------------------------------------------------------------------------
 (1) _set_time                                             4     3      1    1758
                                             10 BANK0      4     3      1
                            ___awdiv
                            ___awmod
                             ___bmul
                         _clcd_print
                         _clcd_putch
                       _clear_screen
 ---------------------------------------------------------------------------------
 (2) ___bmul                                               3     2      1       6
                                              2 COMMON     3     2      1
 ---------------------------------------------------------------------------------
 (1) _set_temp                                             4     3      1    2209
                                             10 BANK0      4     3      1
                            ___awdiv
                            ___awmod
                            ___lwdiv
                            ___lwmod
                             ___wmul
                         _clcd_print
                         _clcd_putch
                       _clear_screen
 ---------------------------------------------------------------------------------
 (2) ___wmul                                               6     2      4      94
                                              2 COMMON     6     2      4
 ---------------------------------------------------------------------------------
 (2) ___lwmod                                              5     1      4     244
                                              0 BANK0      5     1      4
                            ___lwdiv (ARG)
 ---------------------------------------------------------------------------------
 (2) ___lwdiv                                              7     3      4     166
                                              2 COMMON     7     3      4
 ---------------------------------------------------------------------------------
 (1) _read_matrix_keypad                                   2     2      0     279
                                              4 COMMON     2     2      0
                        _scan_keypad
 ---------------------------------------------------------------------------------
 (2) _scan_keypad                                          2     2      0     161
                                              2 COMMON     2     2      0
 ---------------------------------------------------------------------------------
 (1) _init_config                                          0     0      0      92
                          _init_clcd
                 _init_matrix_keypad
                        _init_timer2
 ---------------------------------------------------------------------------------
 (2) _init_timer2                                          0     0      0       0
 ---------------------------------------------------------------------------------
 (2) _init_matrix_keypad                                   0     0      0       0
 ---------------------------------------------------------------------------------
 (2) _init_clcd                                            0     0      0      92
            _init_display_controller
 ---------------------------------------------------------------------------------
 (3) _init_display_controller                              2     2      0      92
                                              6 COMMON     2     2      0
                         _clcd_write
 ---------------------------------------------------------------------------------
 (1) _heat_food                                            0     0      0       0
 ---------------------------------------------------------------------------------
 (1) _display_time                                         3     3      0    1380
                                             10 BANK0      3     3      0
                            ___awdiv
                            ___awmod
                         _clcd_print
                         _clcd_putch
                       _clear_screen
 ---------------------------------------------------------------------------------
 (2) _clear_screen                                         2     2      0      92
                                              6 COMMON     2     2      0
                         _clcd_write
 ---------------------------------------------------------------------------------
 (2) ___awmod                                              6     2      4     453
                                              6 COMMON     2     2      0
                                              4 BANK0      4     0      4
                            ___awdiv (ARG)
 ---------------------------------------------------------------------------------
 (2) ___awdiv                                              8     4      4     465
                                              2 COMMON     4     0      4
                                              0 BANK0      4     4      0
 ---------------------------------------------------------------------------------
 (1) _display_power_screen                                 5     5      0     506
                                             10 BANK0      5     5      0
                         _clcd_print
                         _clcd_putch
 ---------------------------------------------------------------------------------
 (2) _clcd_putch                                           2     1      1     169
                                              8 BANK0      2     1      1
                            ___awdiv (ARG)
                            ___awmod (ARG)
                            ___lwdiv (ARG)
                            ___lwmod (ARG)
                         _clcd_write
 ---------------------------------------------------------------------------------
 (1) _display_modes                                        0     0      0     201
                         _clcd_print
 ---------------------------------------------------------------------------------
 (2) _clcd_print                                           2     0      2     201
                                              6 COMMON     2     0      2
                         _clcd_write
 ---------------------------------------------------------------------------------
 (4) _clcd_write                                           4     3      1      92
                                              2 COMMON     4     3      1
 ---------------------------------------------------------------------------------
 Estimated maximum stack depth 4
 ---------------------------------------------------------------------------------
 (Depth) Function   	        Calls       Base Space   Used Autos Params    Refs
 ---------------------------------------------------------------------------------
 (5) _isr                                                  2     2      0       0
                                              0 COMMON     2     2      0
 ---------------------------------------------------------------------------------
 Estimated maximum stack depth 5
 ---------------------------------------------------------------------------------

 Call Graph Graphs:

 _main (ROOT)
   _clcd_print
     _clcd_write
   _clear_screen
     _clcd_write
   _display_modes
     _clcd_print
   _display_power_screen
     _clcd_print
     _clcd_putch
       ___awdiv (ARG)
       ___awmod (ARG)
         ___awdiv (ARG)
       ___lwdiv (ARG)
       ___lwmod (ARG)
         ___lwdiv (ARG)
       _clcd_write (ARG)
   _display_time
     ___awdiv
     ___awmod
     _clcd_print
     _clcd_putch
     _clear_screen
   _heat_food
   _init_config
     _init_clcd
       _init_display_controller
         _clcd_write
     _init_matrix_keypad
     _init_timer2
   _read_matrix_keypad
     _scan_keypad
   _set_temp
     ___awdiv
     ___awmod
     ___lwdiv
     ___lwmod
     ___wmul
     _clcd_print
     _clcd_putch
     _clear_screen
   _set_time
     ___awdiv
     ___awmod
     ___bmul
     _clcd_print
     _clcd_putch
     _clear_screen

 _isr (ROOT)

Address spaces:
Name               Size   Autos  Total    Usage
BANK3               96      0       0      0.0%
BITBANK3            96      0       0      0.0%
BANK2               96      0       0      0.0%
BITBANK2            96      0       0      0.0%
BANK1               80      0       0      0.0%
BITBANK1            80      0       0      0.0%
BANK0               80     20      33     41.2%
BITBANK0            80      0       0      0.0%
COMMON              14      9      12     85.7%
BITCOMMON           14      0       0      0.0%
DATA                 0      0      45      0.0%
STACK                0      0       0      0.0%


Microchip Technology PIC Macro Assembler V3.10 build 20250813170317 
Symbol Table                                                                                   Sat Jan 31 16:02:33 2026

                              pc 0002                   ___bmul@product 0073                   clcd_print@addr 0077  
                             l45 07FF                               l61 0394                               l71 0421  
                             l78 03FC                               l79 03FF                     ___awdiv@sign 0021  
                             fsr 0004              ___wmul@multiplicand 0074               _init_matrix_keypad 0DE3  
                            l110 06DE                              l111 06E6                              l120 0721  
                            l112 0780                              l105 0DF2                              l121 071B  
                            l113 06F2                              l114 06EC                              l132 076B  
                            l133 0773                              l125 073C                              l126 0744  
                            l118 070D                              l135 0779                              l127 0750  
                            l119 0715                              l143 0E4E                              l224 07EA  
                            l128 074A                              l170 0DE2                              l227 0E98  
                            l164 0EF3                              l173 0E2B                              l182 0E03  
                            l167 04F0                              l255 0314                              l282 06C5  
                            l418 0E16                              l179 0E73                              l195 04FD  
                            l275 0146                              l285 0DD7                              l278 01CB  
                            l392 0EA5                              l545 048D                              l394 0EBD  
                            l558 0FFF                              l672 0FA6                              l682 0F64  
                            _GIE 005F                              _RB0 0030                              _RB1 0031  
                            _RB2 0032                              _RC2 003A                              _RD0 0040  
                            _RD1 0041                              _RD2 0042                              _RD3 0043  
                            _RE1 0049                              _RE2 004A                              _PR2 0092  
                  ?_display_time 0070                              _min 003E                              _sec 003F  
                            _isr 0EF4                   clcd_putch@addr 0028                              fsr0 0004  
                 clcd_putch@data 0029                     ___awmod@sign 0077              ?_init_matrix_keypad 0070  
                           l2110 0DCE                             l2112 0DD2                             l2114 0DD3  
                           l2300 0FBE                             l2116 0DD4                             l2310 0FD4  
                           l2302 0FC4                             l2118 0DD5                             l2230 0E05  
                           l2320 0FF6                             l2312 0FDE                             l2304 0FC7  
                           l1600 0DF3                             l2240 0E15                             l2232 0E06  
                           l2400 0263                             l1610 0E67                             l2250 0435  
                           l2322 0FFB                             l2314 0FE4                             l2306 0FCE  
                           l1602 0DFA                             l2330 0F36                             l2234 0E0A  
                           l2410 027B                             l2402 0265                             l1540 0ECD  
                           l1604 0E4F                             l2260 0444                             l2252 0437  
                           l2244 0429                             l2316 0FEB                             l2308 0FD0  
                           l2420 05F2                             l1612 06C6                             l2340 0F53  
                           l2332 0F3D                             l2500 00C0                             l2236 0E0C  
                           l2412 0280                             l2404 026D                             l1550 0EE7  
                           l1542 0ED2                             l1534 0EBF                             l1606 0E57  
                           l2270 045A                             l2262 044A                             l2254 043B  
                           l2246 042C                             l2318 0FF1                             l2430 066C  
                           l2422 060D                             l1702 0777                             l1630 06F0  
                           l1614 06CC                             l2342 0F5A                             l2334 0F3F  
                           l2326 0F2B                             l2510 0147                             l2502 00C9  
                           l2238 0E0E                             l2414 0293                             l2406 026E  
                           l2350 01D5                             l1552 0EEA                             l1544 0ED5  
                           l1536 0EC9                             l1608 0E65                             l2272 046B  
                           l2264 044D                             l2280 047F                             l2256 0440  
                           l2248 0430                             l2440 0693                             l2432 0675  
                           l2424 062A                             l1560 04AD                             l1712 077F  
                           l1640 06FA                             l1624 06EA                             l1616 06D0  
                           l2336 0F43                             l2328 0F33                             l2344 0F60  
                           l1720 0E9B                             l2520 0172                             l2512 014C  
                           l2504 00D2                             l2416 02A6                             l2408 0276  
                           l2360 01FF                             l2352 01DA                             l2600 03F2  
                           l1546 0EE1                             l1538 0ECC                             l2282 0484  
                           l2274 0471                             l2266 0454                             l2258 0442  
                           l2290 0FA8                             l2450 06AE                             l2442 0698  
                           l2434 067E                             l2426 0634                             l2418 05E9  
                           l1570 04CF                             l1562 04B2                             l1554 048E  
                           l1650 0719                             l1642 0700                             l1634 06F6  
                           l1618 06E4                             l2338 0F4D                             l1722 0E9F  
                           l2514 0150                             l2506 00DD                             l2370 021A  
                           l2362 0207                             l2354 01E3                             l2602 03F7  
                           l2610 0402                             l2530 032E                             l2522 0315  
                           l1548 0EE2                             l1716 0E1A                             l2284 0489  
                           l2276 0472                             l2268 0456                             l2292 0FAE  
                           l2452 06BC                             l2444 069B                             l2436 0687  
                           l2428 064F                             l1572 04D4                             l1564 04B9  
                           l1556 0496                             l1580 0DDB                             l1708 077D  
                           l1660 0725                             l1644 0713                             l1820 0F70  
                           l1724 0EAC                             l2508 013F                             l2516 0150  
                           l2460 003A                             l2372 0226                             l2364 020D  
                           l2380 023D                             l2356 01EC                             l2348 01CF  
                           l2540 0351                             l2532 0330                             l2524 031A  
                           l1910 078D                             l1902 0781                             l2278 0479  
                           l2294 0FB3                             l2454 06C1                             l2446 069C  
                           l2438 068E                             l1574 04E4                             l1566 04BC  
                           l1558 049D                             l1582 0DDC                             l1590 0DEC  
                           l1670 0742                             l1830 0F94                             l1822 0F77  
                           l1814 0F65                             l1726 0EB3                             l1718 0E99  
                           l2518 0155                             l2470 005D                             l2462 0042  
                           l2390 0251                             l2382 0243                             l2374 0228  
                           l2366 0212                             l2358 01F6                             l2550 036C  
                           l2534 0335                             l2542 0356                             l2526 0323  
                           l1912 079B                             l2296 0FB5                             l2288 0FA7  
                           l2448 06A5                             l1576 04EB                             l1568 04C3  
                           l1584 0DDD                             l1592 0DEF                             l1656 071F  
                           l1832 0F95                             l1824 0F79                             l1816 0F67  
                           l1728 0EB9                             l2480 007B                             l2472 0066  
                           l2464 0043                             l2456 0030                             l2384 0248  
                           l2392 0254                             l2376 022E                             l2368 0214  
                           l2544 035C                             l2536 033E                             l2528 0329  
                           l2560 037A                             l1930 07D5                             l1914 079F  
                           l2298 0FB9                             l1578 0DD8                             l1594 0DF0  
                           l1586 0DE3                             l1682 074E                             l1666 0729  
                           l1834 0F9C                             l1826 0F7D                             l1818 0F6D  
                           l2490 00A9                             l2482 0081                             l2474 006E  
                           l2466 004B                             l2458 0036                             l2394 025A  
                           l2386 024B                             l2378 023A                             l2570 039A  
                           l2562 0380                             l2554 0371                             l2546 0360  
                           l2538 034C                             l1932 07DB                             l1924 07BA  
                           l1916 07A5                             l1908 0784                             l1596 0DF1  
                           l1588 0DEB                             l1692 0758                             l1676 0748  
                           l1668 072F                             l1828 0F8E                             l1836 0FA2  
                           l2492 00B2                             l2476 0074                             l2484 0099  
                           l2468 0054                             l2396 025F                             l2388 0250  
                           l2580 03B2                             l2572 039D                             l2564 0386  
                           l2556 0377                             l2548 0366                             l1934 0E74  
                           l1926 07C3                             l1918 07B7                             l1598 04F1  
                           l1870 07FE                             l1862 07EB                             l1694 075E  
                           l1686 0754                             l2494 00B6                             l2486 009F  
                           l2478 0079                             l2398 0262                             l2590 03CC  
                           l2582 03B7                             l2574 03A3                             l2566 0389  
                           l1928 07D1                             l1864 07F5                             l1696 0771  
                           l1872 0E2D                             l2496 00BB                             l2488 00A3  
                           l2592 03D5                             l2584 03BC                             l2568 038F  
                           l2576 03A6                             l1866 07FA                             l1882 0E3A  
                           l1874 0E33                             l2498 00BF                             l2594 03DB  
                           l2586 03C1                             l2578 03AC                             l1868 07FD  
                           l1884 0E3F                             l1876 0E38                             l2596 03E4  
                           l2588 03C6                             l1886 0E44                             l1894 0E46  
                           l2598 03ED                             l1896 0E4B                             l1898 0E4D  
                           ?_isr 0070                             STR_1 0571                             STR_2 057E  
                           STR_3 0546                             STR_4 05B4                             STR_5 05AB  
                           STR_6 0563                             STR_7 05BD                             STR_8 0506  
                           STR_9 05DD                             u1100 06E4                             u1101 06E3  
                           u1110 06EA                             u1111 06E9                             u1200 074E  
                           u1120 06F0                             u1201 074D                             u1121 06EF  
                           u1050 0EC6                             u1210 076B                             u1130 070D  
                           u1051 0EC2                             u1211 076A                             u1131 070C  
                           u1220 0771                             u1140 0713                             u1221 0770  
                           u1141 0712                             u1230 0777                             u1150 0719  
                           u1231 0776                             u1215 0767                             u1151 0718  
                           u1135 0709                             u1064 0EC9                             u1080 0E73  
                           u2200 045A                             u1240 077D                             u1160 071F  
                           u1081 0E72                             u2201 0459                             u1241 077C  
                           u1161 071E                             u1170 073C                             u1090 06DE  
                           u1250 0E9F                             u1075 0ED9                             u1171 073B  
                           u1091 06DD                             u1251 0E9E                             u2220 046B  
                           u2300 0FD4                             u1180 0742                             u1500 0F7D  
                           u2140 0E0A                             u2221 046A                             u2301 0FD3  
                           u1181 0741                             u1501 0F7C                             u2141 0E09  
                           u2310 0FDE                             u1190 0748                             u2150 0E15  
                           u2215 045B                             u2311 0FDD                             u1191 0747  
                           u1175 0738                             u2151 0E14                             u2240 047F  
                           u2160 0430                             u1520 0F8E                             u2400 0F60  
                           u1280 0EB9                             u2241 047E                             u2225 0467  
                           u2161 042F                             u1521 0F8D                             u2401 0F5F  
                           u1281 0EB8                             u1265 0EA6                             u2250 0484  
                           u2170 043B                             u2330 0FF1                             u1610 0E38  
                           u2410 01D5                             u2251 0483                             u2235 0473  
                           u2171 043A                             u2331 0FF0                             u2315 0FDA  
                           u1611 0E37                             u1515 0F7E                             u1275 0EAD  
                           u2411 01D4                             u2180 044A                             u2340 0FF6  
                           u2260 0FAE                             u1620 0E3F                             u1540 0FA2  
                           u2500 025A                             u2420 0207                             u2181 0449  
                           u2341 0FF5                             u2325 0FE5                             u2261 0FAD  
                           u1621 0E3E                             u1541 0FA1                             u1525 0F8A  
                           u2501 0259                             u2421 0206                             u2270 0FB9  
                           u1630 0E44                             u2350 0F33                             u2510 026D  
                           u2430 020D                             u2271 0FB8                             u1631 0E43  
                           u1535 0F96                             u2351 0F32                             u2511 026C  
                           u2431 020C                             u2280 0FC4                             u1640 0E4B  
                           u1480 0F6D                             u2600 0049                             u2520 0274  
                           u2440 0212                             u2281 0FC3                             u1641 0E4A  
                           u1481 0F6C                             u2601 0047                             u2521 0272  
                           u2441 0211                             u1650 07A5                             u2370 0F43  
                           u2610 004A                             u2530 0275                             u2450 021A  
                           u1651 07A4                             u2195 044E                             u2371 0F42  
                           u2451 0219                             u1660 07DB                             u2380 0F4D  
                           u2700 0155                             u2620 006E                             u2540 027B  
                           u2460 022E                             u1661 07DA                             u2381 0F4C  
                           u2365 0F37                             u2701 0154                             u2621 006D  
                           u2541 027A                             u2461 022D                             u2630 0074  
                           u2550 0280                             u2470 0243                             u2710 0329  
                           u2295 0FC8                             u1495 0F71                             u2631 0073  
                           u2551 027F                             u2471 0242                             u2711 0328  
                           u2560 068E                             u2640 0079                             u2480 0248  
                           u2800 03A3                             u2720 032E                             u2561 068D  
                           u2385 0F49                             u2641 0078                             u2481 0247  
                           u2801 03A2                             u2721 032D                             u2570 0693  
                           u2650 0081                             u2490 0250                             u2810 03AC  
                           u2730 035C                             u2571 0692                             u2395 0F54  
                           u2651 0080                             u2491 024F                             u2811 03AB  
                           u2731 035B                             u2660 009F                             u2580 0036  
                           u2820 03B2                             u2740 036C                             u2661 009E  
                           u2581 0035                             u2821 03B1                             u2741 036B  
                           u2670 00A9                             u2590 0042                             u2750 0377  
                           u2671 00A8                             u2591 0041                             u2751 0376  
                           u2680 00B2                             u2760 0380                             u2681 00B1  
                           u2761 037F                             u2690 0146                             u2770 0386  
                           u2907 04ED                             u2691 0145                             u2771 0385  
                           _PEIE 005E                             u2780 038F                             u2917 06B6  
                           u2781 038E                             u2837 0346                             u2790 039A  
                           u2927 0DFE                             u2847 0492                             u2791 0399  
                           u2937 0795                             u2857 04A1                             u2947 07CB  
                           u2867 04AF                             u2957 07E3                             u2877 04C5  
                           u2967 0ECF                             u2887 04D1                             u2977 0EE4  
                           u2897 04DF                             u2987 0EEE                   ?_display_modes 0070  
                           _main 0315                             _temp 0034                             btemp 007E  
                           start 000C                ___bmul@multiplier 0074             ??_init_matrix_keypad 0072  
                 clcd_write@byte 0075                   clcd_write@mode 0072                            ??_isr 0070  
           _display_power_screen 0781                            ?_main 0070                   ??_display_time 002A  
                __end_of___awdiv 048E                            STR_10 0517                            STR_11 0555  
                          STR_12 05E3                            STR_20 0596                            STR_13 0517  
                          STR_21 0527                            STR_14 058A                            STR_15 05A1  
                          STR_16 05C6                            STR_17 0537                            STR_18 05CE  
                          STR_19 05D6                  __end_of___awmod 1000                  ___awdiv@divisor 0072  
                __end_of___lwdiv 0FA7                            i1l303 0F1C                            i1l306 0F24  
                __end_of___lwmod 0F65                     ?_init_config 0070                  ___awdiv@counter 0020  
                          _PORTD 0008                            _TRISB 0086                            _TRISD 0088  
                   ?_init_timer2 0070             __end_of_clear_screen 0E04                            _nRBPU 040F  
             _read_matrix_keypad 0E2C                            btemp0 007E                            btemp1 007F  
                          pclath 000A              ?_read_matrix_keypad 0070                            status 0003  
                          wtemp0 007E                     ?_scan_keypad 0070                  __initialization 000F  
                   __end_of_main 0429            ?_display_power_screen 0070             ??_read_matrix_keypad 0074  
                         ??_main 002F                  ??_display_modes 0078                 ___awdiv@dividend 0074  
                         i1l2210 0EF4                           i1l2220 0F13                           i1l2212 0EFA  
                         i1l2222 0F18                           i1l2214 0F09                           i1l2224 0F1A  
                         i1l2216 0F0B                           i1l2226 0F21                           i1l2218 0F10  
                         i1l2228 0F23                           u210_20 0F09                           u210_21 0F08  
                         u211_20 0F10                           u211_21 0F0F                           u212_20 0F18  
                         u212_21 0F17                           u213_20 0F21                           u213_21 0F20  
                         u209_20 0EFA                           u209_21 0EF9                           _TMR2IE 0461  
                         _TMR2IF 0061                           _TMR2ON 0092                           _TRISC2 043A  
                         _TRISE1 0449                           _TRISE2 044A                           ___bmul 0E04  
        _init_display_controller 048E                           ___wmul 0E99                        ??___awdiv 0076  
                      ??___awmod 0076                        ??___lwdiv 0076                        ??___lwmod 0079  
               ___awdiv@quotient 0022                  ___awmod@divisor 0024                  ___awmod@counter 0076  
                   __pdataCOMMON 007B                 __end_of_set_temp 01CC                 __end_of_set_time 0315  
                         ltemp0a 0080                           saved_w 007E                           ttemp0a 007F  
                         wtemp0a 007F          __end_of__initialization 0029             __end_of_display_time 06C6  
            ___bmul@multiplicand 0072                   __pcstackCOMMON 0070                     __pidataBANK0 04FF  
         ??_display_power_screen 002A        display_power_screen@i_164 002E                       __pbssBANK0 0034  
      ??_init_display_controller 0076                       _clcd_print 0E4F                       _clcd_putch 0E17  
                     _clcd_write 0EBE                       __pmaintext 0315                     _clear_screen 0DF3  
                        ?___bmul 0072                          ?___wmul 0072                       __pintentry 0004  
                        _T2CKPS0 0090                          _T2CKPS1 0091                       __stringtab 0500  
              __end_of_heat_food 0DD8                        ?_set_temp 002A                        ?_set_time 002A  
                        ___awdiv 0429                          ___awmod 0FA7                          ___lwdiv 0F65  
                        ___lwmod 0F2B                          __ptext1 01CC                          __ptext2 0E04  
                        __ptext3 002D                          __ptext4 0E99                          __ptext5 0F2B  
                        __ptext6 0F65                          __ptext7 0E2C                          __ptext8 06C6  
                        __ptext9 07EB  __end_of_init_display_controller 04F1                __end_of_init_clcd 0DE3  
               ___awmod@dividend 0026                   main@reset_flag 0032                          main@key 0033  
           end_of_initialization 0029                      set_temp@key 002D                      set_time@key 002D  
                    ?_clcd_print 0076                      ?_clcd_putch 0028                      ?_clcd_write 0072  
          set_temp@display_blank 0036                       ??_set_temp 002B                       ??_set_time 002B  
          display_power_screen@i 002D                     _display_time 05E9                    clcd_print@str 0076  
          __end_of_display_modes 0E99               set_temp@reset_flag 002A                   __end_of___bmul 0E17  
                 __end_of___wmul 0EBE                    __pidataCOMMON 04FE              start_initialization 000F  
                   scan_keypad@i 0072           read_matrix_keypad@mode 0074           read_matrix_keypad@once 007B  
                    __end_of_isr 0F2B                         ??___bmul 0073                         ??___wmul 0076  
                    __pdataBANK0 0040                    ??_init_config 0078                    ??_init_timer2 0072  
                    __pbssCOMMON 0079                        ___latbits 0002                    __pcstackBANK0 0020  
                  ??_scan_keypad 0072                 ___lwdiv@dividend 0074                         ?___awdiv 0072  
                       ?___awmod 0024                        _heat_food 0DCE                         ?___lwdiv 0072  
                       ?___lwmod 0020                        __pstrings 0500               set_time@reset_flag 002A  
               ___lwdiv@quotient 0076                        _init_clcd 0DD8              __end_of_init_config 0800  
            __end_of_init_timer2 04FE         ?_init_display_controller 0070                interrupt_function 0004  
                 ___wmul@product 0076                     ??_clcd_print 0078                     ??_clcd_putch 0079  
     __end_of_init_matrix_keypad 0DF3                     ??_clcd_write 0073                set_temp@key_count 0038  
            __end_of_scan_keypad 0781                       ?_heat_food 0070                      __stringbase 0505  
              ___wmul@multiplier 0072               __end_of_clcd_print 0E74               __end_of_clcd_putch 0E2C  
             __end_of_clcd_write 0EF4                       ?_init_clcd 0070            read_matrix_keypad@key 0075  
              set_time@blink_pos 003C                    set_temp@delay 0037                    set_time@delay 003A  
     __end_of_read_matrix_keypad 0E4F            set_time@display_blank 0039               __end_of__stringtab 0506  
              set_time@key_count 003B                      _init_config 07EB                      _init_timer2 04F1  
                ___lwdiv@divisor 0072                  ___lwdiv@counter 0078                         __ptext10 04F1  
                       __ptext11 0DE3                         __ptext20 0E17                         __ptext12 0DD8  
                       __ptext21 0E74                         __ptext13 048E                         __ptext22 0E4F  
                       __ptext14 0DCE                         __ptext23 0EBE                         __ptext15 05E9  
                       __ptext24 0EF4                         __ptext16 0DF3                         __ptext17 0FA7  
                       __ptext18 0429                         __ptext19 0781                      _scan_keypad 06C6  
                       _pre_heat 003D                    ?_clear_screen 0070                         _set_temp 002D  
                       _set_time 01CC                      ??_heat_food 0072                         isr@count 0079  
                    ??_init_clcd 0078                         intlevel1 0000     __end_of_display_power_screen 07EB  
                    _screen_flag 0040                 ___lwmod@dividend 0022                        stringcode 0500  
                 ??_clear_screen 0076                  ___lwmod@divisor 0020                  ___lwmod@counter 0024  
                       stringdir 0500                         stringtab 0500                    _display_modes 0E74  
